EXPORTS
    _ZN6libAF210FileLoader14loadObjectFileERKSsRNS_6ObjectE @1
    _ZN6libAF210FileLoader16enableExceptionsE @2 DATA
    _ZN6libAF210FileLoader17loadCharacterFileERKSsRNS_9CharacterE @3
    _ZN6libAF24Mesh11addTriangleERKNS0_8TriangleE @4
    _ZN6libAF24Mesh11getTriangleERKj @5
    _ZN6libAF24Mesh14getBonesVectorEv @6
    _ZN6libAF24Mesh17getVerticesVectorEv @7
    _ZN6libAF24Mesh18getTrianglesVectorEv @8
    _ZN6libAF24Mesh4BoneC1ERKS1_ @9
    _ZN6libAF24Mesh4BoneC1Ev @10
    _ZN6libAF24Mesh4BoneC2ERKS1_ @11
    _ZN6libAF24Mesh4BoneC2Ev @12
    _ZN6libAF24Mesh4BoneD1Ev @13
    _ZN6libAF24Mesh4BoneaSERKS1_ @14
    _ZN6libAF24Mesh6VertexC1ERKS1_ @15
    _ZN6libAF24Mesh6VertexC1Ev @16
    _ZN6libAF24Mesh6VertexC2ERKS1_ @17
    _ZN6libAF24Mesh6VertexC2Ev @18
    _ZN6libAF24Mesh7addBoneERKNS0_4BoneE @19
    _ZN6libAF24Mesh7getBoneERKj @20
    _ZN6libAF24Mesh7setNameERKSs @21
    _ZN6libAF24Mesh8TriangleC1ERKS1_ @22
    _ZN6libAF24Mesh8TriangleC1Ev @23
    _ZN6libAF24Mesh8TriangleC2ERKS1_ @24
    _ZN6libAF24Mesh8TriangleC2Ev @25
    _ZN6libAF24Mesh9addVertexERKNS0_6VertexE @26
    _ZN6libAF24Mesh9getVertexERKj @27
    _ZN6libAF24MeshC1ERKS0_ @28
    _ZN6libAF24MeshC1Ev @29
    _ZN6libAF24MeshC2ERKS0_ @30
    _ZN6libAF24MeshC2Ev @31
    _ZN6libAF24MeshD1Ev @32
    _ZN6libAF24MeshD2Ev @33
    _ZN6libAF24MeshaSERKS0_ @34
    _ZN6libAF24MeshplERKS0_ @35
    _ZN6libAF25Sound11setWaveDataEttjjPKa @36
    _ZN6libAF25Sound15getWaveDataCopyEv @37
    _ZN6libAF25Sound7setNameERKSs @38
    _ZN6libAF25SoundC1ERKS0_ @39
    _ZN6libAF25SoundC1Ev @40
    _ZN6libAF25SoundC2ERKS0_ @41
    _ZN6libAF25SoundC2Ev @42
    _ZN6libAF25SoundD1Ev @43
    _ZN6libAF25SoundD2Ev @44
    _ZN6libAF25SoundaSERKS0_ @45
    _ZN6libAF27Texture5PixelC1ERKS1_ @46
    _ZN6libAF27Texture5PixelC1Effff @47
    _ZN6libAF27Texture5PixelC1Ev @48
    _ZN6libAF27Texture5PixelC2ERKS1_ @49
    _ZN6libAF27Texture5PixelC2Effff @50
    _ZN6libAF27Texture5PixelC2Ev @51
    _ZN6libAF27Texture5PixelaSERKS1_ @52
    _ZN6libAF27Texture9getPixelsEv @53
    _ZN6libAF27Texture9setPixelsERKjS2_PKf @54
    _ZN6libAF27TextureC1ERKS0_ @55
    _ZN6libAF27TextureC1Ev @56
    _ZN6libAF27TextureC2ERKS0_ @57
    _ZN6libAF27TextureC2Ev @58
    _ZN6libAF27TextureD1Ev @59
    _ZN6libAF27TextureD2Ev @60
    _ZN6libAF27TextureaSERKS0_ @61
    _ZN6libAF29Animation5FrameC1ERKS1_ @62
    _ZN6libAF29Animation5FrameC1Ev @63
    _ZN6libAF29Animation5FrameC2ERKS1_ @64
    _ZN6libAF29Animation5FrameC2Ev @65
    _ZN6libAF29Animation5FrameD1Ev @66
    _ZN6libAF29Animation5FrameaSERKS1_ @67
    _ZN6libAF29Animation6setKPSERKj @68
    _ZN6libAF29Animation7setNameERKSs @69
    _ZN6libAF29Animation8addFrameERKNS0_5FrameE @70
    _ZN6libAF29Animation8getFrameEj @71
    _ZN6libAF29AnimationC1ERKS0_ @72
    _ZN6libAF29AnimationC1Ev @73
    _ZN6libAF29AnimationC2ERKS0_ @74
    _ZN6libAF29AnimationC2Ev @75
    _ZN6libAF29AnimationD1Ev @76
    _ZN6libAF29AnimationD2Ev @77
    _ZN6libAF29AnimationaSERKS0_ @78
    _ZN9__gnu_cxx13new_allocatorIN6libAF24Mesh4BoneEE10deallocateEPS3_j @79
    _ZN9__gnu_cxx13new_allocatorIN6libAF24Mesh4BoneEE7destroyIS3_EEvPT_ @80
    _ZN9__gnu_cxx13new_allocatorIN6libAF24Mesh4BoneEE8allocateEjPKv @81
    _ZN9__gnu_cxx13new_allocatorIN6libAF24Mesh4BoneEE9constructIS3_IRKS3_EEEvPT_DpOT0_ @82
    _ZN9__gnu_cxx13new_allocatorIN6libAF24Mesh4BoneEEC2Ev @83
    _ZN9__gnu_cxx13new_allocatorIN6libAF24Mesh4BoneEED2Ev @84
    _ZN9__gnu_cxx13new_allocatorIN6libAF24Mesh6VertexEE10deallocateEPS3_j @85
    _ZN9__gnu_cxx13new_allocatorIN6libAF24Mesh6VertexEE7destroyIS3_EEvPT_ @86
    _ZN9__gnu_cxx13new_allocatorIN6libAF24Mesh6VertexEE8allocateEjPKv @87
    _ZN9__gnu_cxx13new_allocatorIN6libAF24Mesh6VertexEE9constructIS3_IRKS3_EEEvPT_DpOT0_ @88
    _ZN9__gnu_cxx13new_allocatorIN6libAF24Mesh6VertexEEC2Ev @89
    _ZN9__gnu_cxx13new_allocatorIN6libAF24Mesh6VertexEED2Ev @90
    _ZN9__gnu_cxx13new_allocatorIN6libAF24Mesh8TriangleEE10deallocateEPS3_j @91
    _ZN9__gnu_cxx13new_allocatorIN6libAF24Mesh8TriangleEE7destroyIS3_EEvPT_ @92
    _ZN9__gnu_cxx13new_allocatorIN6libAF24Mesh8TriangleEE8allocateEjPKv @93
    _ZN9__gnu_cxx13new_allocatorIN6libAF24Mesh8TriangleEE9constructIS3_IRKS3_EEEvPT_DpOT0_ @94
    _ZN9__gnu_cxx13new_allocatorIN6libAF24Mesh8TriangleEEC2Ev @95
    _ZN9__gnu_cxx13new_allocatorIN6libAF24Mesh8TriangleEED2Ev @96
    _ZN9__gnu_cxx13new_allocatorIN6libAF25SoundEE10deallocateEPS2_j @97
    _ZN9__gnu_cxx13new_allocatorIN6libAF25SoundEE7destroyIS2_EEvPT_ @98
    _ZN9__gnu_cxx13new_allocatorIN6libAF25SoundEE8allocateEjPKv @99
    _ZN9__gnu_cxx13new_allocatorIN6libAF25SoundEE9constructIS2_IRKS2_EEEvPT_DpOT0_ @100
    _ZN9__gnu_cxx13new_allocatorIN6libAF29Animation5FrameEE10deallocateEPS3_j @101
    _ZN9__gnu_cxx13new_allocatorIN6libAF29Animation5FrameEE7destroyIS3_EEvPT_ @102
    _ZN9__gnu_cxx13new_allocatorIN6libAF29Animation5FrameEE8allocateEjPKv @103
    _ZN9__gnu_cxx13new_allocatorIN6libAF29Animation5FrameEE9constructIS3_IRKS3_EEEvPT_DpOT0_ @104
    _ZN9__gnu_cxx13new_allocatorIN6libAF29Animation5FrameEEC2ERKS4_ @105
    _ZN9__gnu_cxx13new_allocatorIN6libAF29Animation5FrameEEC2Ev @106
    _ZN9__gnu_cxx13new_allocatorIN6libAF29Animation5FrameEED2Ev @107
    _ZN9__gnu_cxx13new_allocatorIN6libAF29AnimationEE10deallocateEPS2_j @108
    _ZN9__gnu_cxx13new_allocatorIN6libAF29AnimationEE7destroyIS2_EEvPT_ @109
    _ZN9__gnu_cxx13new_allocatorIN6libAF29AnimationEE8allocateEjPKv @110
    _ZN9__gnu_cxx13new_allocatorIN6libAF29AnimationEE9constructIS2_IRKS2_EEEvPT_DpOT0_ @111
    _ZN9__gnu_cxx13new_allocatorISt5arrayIfLj3EEE10deallocateEPS2_j @112
    _ZN9__gnu_cxx13new_allocatorISt5arrayIfLj3EEE7destroyIS2_EEvPT_ @113
    _ZN9__gnu_cxx13new_allocatorISt5arrayIfLj3EEE8allocateEjPKv @114
    _ZN9__gnu_cxx13new_allocatorISt5arrayIfLj3EEE9constructIS2_IRKS2_EEEvPT_DpOT0_ @115
    _ZN9__gnu_cxx13new_allocatorISt5arrayIfLj3EEEC2Ev @116
    _ZN9__gnu_cxx13new_allocatorISt5arrayIfLj3EEED2Ev @117
    _ZN9__gnu_cxx13new_allocatorIjE10deallocateEPjj @118
    _ZN9__gnu_cxx13new_allocatorIjE7destroyIjEEvPT_ @119
    _ZN9__gnu_cxx13new_allocatorIjE8allocateEjPKv @120
    _ZN9__gnu_cxx13new_allocatorIjE9constructIjIRKjEEEvPT_DpOT0_ @121
    _ZN9__gnu_cxx14__alloc_traitsISaIN6libAF24Mesh4BoneEEE15_S_always_equalEv @122
    _ZN9__gnu_cxx14__alloc_traitsISaIN6libAF24Mesh4BoneEEE27_S_propagate_on_copy_assignEv @123
    _ZN9__gnu_cxx14__alloc_traitsISaIN6libAF24Mesh6VertexEEE15_S_always_equalEv @124
    _ZN9__gnu_cxx14__alloc_traitsISaIN6libAF24Mesh6VertexEEE27_S_propagate_on_copy_assignEv @125
    _ZN9__gnu_cxx14__alloc_traitsISaIN6libAF24Mesh8TriangleEEE15_S_always_equalEv @126
    _ZN9__gnu_cxx14__alloc_traitsISaIN6libAF24Mesh8TriangleEEE27_S_propagate_on_copy_assignEv @127
    _ZN9__gnu_cxx14__alloc_traitsISaIN6libAF29Animation5FrameEEE15_S_always_equalEv @128
    _ZN9__gnu_cxx14__alloc_traitsISaIN6libAF29Animation5FrameEEE17_S_select_on_copyERKS4_ @129
    _ZN9__gnu_cxx14__alloc_traitsISaIN6libAF29Animation5FrameEEE27_S_propagate_on_copy_assignEv @130
    _ZN9__gnu_cxx14__alloc_traitsISaISt5arrayIfLj3EEEE15_S_always_equalEv @131
    _ZN9__gnu_cxx14__alloc_traitsISaISt5arrayIfLj3EEEE27_S_propagate_on_copy_assignEv @132
    _ZN9__gnu_cxx17__normal_iteratorIPKN6libAF24Mesh4BoneESt6vectorIS3_SaIS3_EEEC1ERKS5_ @133
    _ZN9__gnu_cxx17__normal_iteratorIPKN6libAF24Mesh4BoneESt6vectorIS3_SaIS3_EEEC1IPS3_EERKNS0_IT_NS_11__enable_ifIXsrSt10__are_sameISC_SB_E7__valueES8_E6__typeEEE @134
    _ZN9__gnu_cxx17__normal_iteratorIPKN6libAF24Mesh4BoneESt6vectorIS3_SaIS3_EEEpLEi @135
    _ZN9__gnu_cxx17__normal_iteratorIPKN6libAF24Mesh4BoneESt6vectorIS3_SaIS3_EEEppEv @136
    _ZN9__gnu_cxx17__normal_iteratorIPKN6libAF24Mesh6VertexESt6vectorIS3_SaIS3_EEEC1ERKS5_ @137
    _ZN9__gnu_cxx17__normal_iteratorIPKN6libAF24Mesh6VertexESt6vectorIS3_SaIS3_EEEC1IPS3_EERKNS0_IT_NS_11__enable_ifIXsrSt10__are_sameISC_SB_E7__valueES8_E6__typeEEE @138
    _ZN9__gnu_cxx17__normal_iteratorIPKN6libAF24Mesh6VertexESt6vectorIS3_SaIS3_EEEpLEi @139
    _ZN9__gnu_cxx17__normal_iteratorIPKN6libAF24Mesh6VertexESt6vectorIS3_SaIS3_EEEppEv @140
    _ZN9__gnu_cxx17__normal_iteratorIPKN6libAF24Mesh8TriangleESt6vectorIS3_SaIS3_EEEC1ERKS5_ @141
    _ZN9__gnu_cxx17__normal_iteratorIPKN6libAF24Mesh8TriangleESt6vectorIS3_SaIS3_EEEC1IPS3_EERKNS0_IT_NS_11__enable_ifIXsrSt10__are_sameISC_SB_E7__valueES8_E6__typeEEE @142
    _ZN9__gnu_cxx17__normal_iteratorIPKN6libAF24Mesh8TriangleESt6vectorIS3_SaIS3_EEEpLEi @143
    _ZN9__gnu_cxx17__normal_iteratorIPKN6libAF24Mesh8TriangleESt6vectorIS3_SaIS3_EEEppEv @144
    _ZN9__gnu_cxx17__normal_iteratorIPKN6libAF29Animation5FrameESt6vectorIS3_SaIS3_EEEC1ERKS5_ @145
    _ZN9__gnu_cxx17__normal_iteratorIPKN6libAF29Animation5FrameESt6vectorIS3_SaIS3_EEEppEv @146
    _ZN9__gnu_cxx17__normal_iteratorIPKSt5arrayIfLj3EESt6vectorIS2_SaIS2_EEEC1ERKS4_ @147
    _ZN9__gnu_cxx17__normal_iteratorIPN6libAF24Mesh4BoneESt6vectorIS3_SaIS3_EEEC1ERKS4_ @148
    _ZN9__gnu_cxx17__normal_iteratorIPN6libAF24Mesh4BoneESt6vectorIS3_SaIS3_EEEppEv @149
    _ZN9__gnu_cxx17__normal_iteratorIPN6libAF24Mesh6VertexESt6vectorIS3_SaIS3_EEEC1ERKS4_ @150
    _ZN9__gnu_cxx17__normal_iteratorIPN6libAF24Mesh8TriangleESt6vectorIS3_SaIS3_EEEC1ERKS4_ @151
    _ZN9__gnu_cxx17__normal_iteratorIPN6libAF29Animation5FrameESt6vectorIS3_SaIS3_EEEC1ERKS4_ @152
    _ZN9__gnu_cxx17__normal_iteratorIPN6libAF29Animation5FrameESt6vectorIS3_SaIS3_EEEppEv @153
    _ZN9__gnu_cxx17__normal_iteratorIPSt5arrayIfLj3EESt6vectorIS2_SaIS2_EEEC1ERKS3_ @154
    _ZN9__gnu_cxxmiIPKN6libAF24Mesh4BoneESt6vectorIS3_SaIS3_EEEENS_17__normal_iteratorIT_T0_E15difference_typeERKSC_SF_ @155
    _ZN9__gnu_cxxmiIPKN6libAF24Mesh6VertexESt6vectorIS3_SaIS3_EEEENS_17__normal_iteratorIT_T0_E15difference_typeERKSC_SF_ @156
    _ZN9__gnu_cxxmiIPKN6libAF24Mesh8TriangleESt6vectorIS3_SaIS3_EEEENS_17__normal_iteratorIT_T0_E15difference_typeERKSC_SF_ @157
    _ZN9__gnu_cxxmiIPN6libAF24Mesh4BoneESt6vectorIS3_SaIS3_EEEENS_17__normal_iteratorIT_T0_E15difference_typeERKSB_SE_ @158
    _ZN9__gnu_cxxmiIPN6libAF24Mesh6VertexESt6vectorIS3_SaIS3_EEEENS_17__normal_iteratorIT_T0_E15difference_typeERKSB_SE_ @159
    _ZN9__gnu_cxxmiIPN6libAF24Mesh8TriangleESt6vectorIS3_SaIS3_EEEENS_17__normal_iteratorIT_T0_E15difference_typeERKSB_SE_ @160
    _ZN9__gnu_cxxneIPKN6libAF24Mesh4BoneESt6vectorIS3_SaIS3_EEEEbRKNS_17__normal_iteratorIT_T0_EESE_ @161
    _ZN9__gnu_cxxneIPKN6libAF24Mesh6VertexESt6vectorIS3_SaIS3_EEEEbRKNS_17__normal_iteratorIT_T0_EESE_ @162
    _ZN9__gnu_cxxneIPKN6libAF24Mesh8TriangleESt6vectorIS3_SaIS3_EEEEbRKNS_17__normal_iteratorIT_T0_EESE_ @163
    _ZN9__gnu_cxxneIPKN6libAF29Animation5FrameESt6vectorIS3_SaIS3_EEEEbRKNS_17__normal_iteratorIT_T0_EESE_ @164
    _ZN9__gnu_cxxneIPN6libAF24Mesh4BoneESt6vectorIS3_SaIS3_EEEEbRKNS_17__normal_iteratorIT_T0_EESD_ @165
    _ZN9__gnu_cxxneIPN6libAF29Animation5FrameESt6vectorIS3_SaIS3_EEEEbRKNS_17__normal_iteratorIT_T0_EESD_ @166
    _ZNK6libAF24Mesh12getBoneCountEv @167
    _ZNK6libAF24Mesh14getVertexCountEv @168
    _ZNK6libAF24Mesh16getTriangleCountEv @169
    _ZNK6libAF24Mesh7getNameEv @170
    _ZNK6libAF25Sound11getBitDepthEv @171
    _ZNK6libAF25Sound11getChannelsEv @172
    _ZNK6libAF25Sound11getWaveDataEv @173
    _ZNK6libAF25Sound12getFrequencyEv @174
    _ZNK6libAF25Sound7getNameEv @175
    _ZNK6libAF25Sound9getLengthEv @176
    _ZNK6libAF27Texture17getPixelsInternalEv @177
    _ZNK6libAF27Texture8getWidthEv @178
    _ZNK6libAF27Texture9getHeightEv @179
    _ZNK6libAF29Animation13getFrameCountEv @180
    _ZNK6libAF29Animation6getKPSEv @181
    _ZNK6libAF29Animation7getNameEv @182
    _ZNK6libAF29Animation7getTimeEv @183
    _ZNK6libAF29Animation9getFramesEv @184
    _ZNK9__gnu_cxx13new_allocatorIN6libAF24Mesh4BoneEE8max_sizeEv @185
    _ZNK9__gnu_cxx13new_allocatorIN6libAF24Mesh6VertexEE8max_sizeEv @186
    _ZNK9__gnu_cxx13new_allocatorIN6libAF24Mesh8TriangleEE8max_sizeEv @187
    _ZNK9__gnu_cxx13new_allocatorIN6libAF25SoundEE8max_sizeEv @188
    _ZNK9__gnu_cxx13new_allocatorIN6libAF29Animation5FrameEE8max_sizeEv @189
    _ZNK9__gnu_cxx13new_allocatorIN6libAF29AnimationEE8max_sizeEv @190
    _ZNK9__gnu_cxx13new_allocatorISt5arrayIfLj3EEE8max_sizeEv @191
    _ZNK9__gnu_cxx13new_allocatorIjE8max_sizeEv @192
    _ZNK9__gnu_cxx17__normal_iteratorIPKN6libAF24Mesh4BoneESt6vectorIS3_SaIS3_EEE4baseEv @193
    _ZNK9__gnu_cxx17__normal_iteratorIPKN6libAF24Mesh4BoneESt6vectorIS3_SaIS3_EEEdeEv @194
    _ZNK9__gnu_cxx17__normal_iteratorIPKN6libAF24Mesh6VertexESt6vectorIS3_SaIS3_EEE4baseEv @195
    _ZNK9__gnu_cxx17__normal_iteratorIPKN6libAF24Mesh6VertexESt6vectorIS3_SaIS3_EEEdeEv @196
    _ZNK9__gnu_cxx17__normal_iteratorIPKN6libAF24Mesh8TriangleESt6vectorIS3_SaIS3_EEE4baseEv @197
    _ZNK9__gnu_cxx17__normal_iteratorIPKN6libAF24Mesh8TriangleESt6vectorIS3_SaIS3_EEEdeEv @198
    _ZNK9__gnu_cxx17__normal_iteratorIPKN6libAF29Animation5FrameESt6vectorIS3_SaIS3_EEE4baseEv @199
    _ZNK9__gnu_cxx17__normal_iteratorIPKN6libAF29Animation5FrameESt6vectorIS3_SaIS3_EEEdeEv @200
    _ZNK9__gnu_cxx17__normal_iteratorIPKSt5arrayIfLj3EESt6vectorIS2_SaIS2_EEE4baseEv @201
    _ZNK9__gnu_cxx17__normal_iteratorIPN6libAF24Mesh4BoneESt6vectorIS3_SaIS3_EEE4baseEv @202
    _ZNK9__gnu_cxx17__normal_iteratorIPN6libAF24Mesh4BoneESt6vectorIS3_SaIS3_EEEdeEv @203
    _ZNK9__gnu_cxx17__normal_iteratorIPN6libAF24Mesh4BoneESt6vectorIS3_SaIS3_EEEplEi @204
    _ZNK9__gnu_cxx17__normal_iteratorIPN6libAF24Mesh6VertexESt6vectorIS3_SaIS3_EEE4baseEv @205
    _ZNK9__gnu_cxx17__normal_iteratorIPN6libAF24Mesh6VertexESt6vectorIS3_SaIS3_EEEplEi @206
    _ZNK9__gnu_cxx17__normal_iteratorIPN6libAF24Mesh8TriangleESt6vectorIS3_SaIS3_EEE4baseEv @207
    _ZNK9__gnu_cxx17__normal_iteratorIPN6libAF24Mesh8TriangleESt6vectorIS3_SaIS3_EEEplEi @208
    _ZNK9__gnu_cxx17__normal_iteratorIPN6libAF29Animation5FrameESt6vectorIS3_SaIS3_EEE4baseEv @209
    _ZNK9__gnu_cxx17__normal_iteratorIPN6libAF29Animation5FrameESt6vectorIS3_SaIS3_EEEdeEv @210
    _ZNK9__gnu_cxx17__normal_iteratorIPSt5arrayIfLj3EESt6vectorIS2_SaIS2_EEE4baseEv @211
    _ZNKSt12_Vector_baseIN6libAF24Mesh4BoneESaIS2_EE19_M_get_Tp_allocatorEv @212
    _ZNKSt12_Vector_baseIN6libAF24Mesh6VertexESaIS2_EE19_M_get_Tp_allocatorEv @213
    _ZNKSt12_Vector_baseIN6libAF24Mesh8TriangleESaIS2_EE19_M_get_Tp_allocatorEv @214
    _ZNKSt12_Vector_baseIN6libAF25SoundESaIS1_EE19_M_get_Tp_allocatorEv @215
    _ZNKSt12_Vector_baseIN6libAF29Animation5FrameESaIS2_EE19_M_get_Tp_allocatorEv @216
    _ZNKSt12_Vector_baseIN6libAF29AnimationESaIS1_EE19_M_get_Tp_allocatorEv @217
    _ZNKSt12_Vector_baseISt5arrayIfLj3EESaIS1_EE19_M_get_Tp_allocatorEv @218
    _ZNKSt12_Vector_baseIjSaIjEE19_M_get_Tp_allocatorEv @219
    _ZNKSt13move_iteratorIPN6libAF24Mesh4BoneEE4baseEv @220
    _ZNKSt13move_iteratorIPN6libAF24Mesh4BoneEEdeEv @221
    _ZNKSt13move_iteratorIPN6libAF24Mesh6VertexEE4baseEv @222
    _ZNKSt13move_iteratorIPN6libAF24Mesh6VertexEEdeEv @223
    _ZNKSt13move_iteratorIPN6libAF24Mesh8TriangleEE4baseEv @224
    _ZNKSt13move_iteratorIPN6libAF24Mesh8TriangleEEdeEv @225
    _ZNKSt13move_iteratorIPSt5arrayIfLj3EEE4baseEv @226
    _ZNKSt13move_iteratorIPjE4baseEv @227
    _ZNKSt13move_iteratorIPjEdeEv @228
    _ZNKSt4fposIiEcvxEv @229
    _ZNKSt6vectorIN6libAF24Mesh4BoneESaIS2_EE12_M_check_lenEjPKc @230
    _ZNKSt6vectorIN6libAF24Mesh4BoneESaIS2_EE3endEv @231
    _ZNKSt6vectorIN6libAF24Mesh4BoneESaIS2_EE4sizeEv @232
    _ZNKSt6vectorIN6libAF24Mesh4BoneESaIS2_EE5beginEv @233
    _ZNKSt6vectorIN6libAF24Mesh4BoneESaIS2_EE6cbeginEv @234
    _ZNKSt6vectorIN6libAF24Mesh4BoneESaIS2_EE8capacityEv @235
    _ZNKSt6vectorIN6libAF24Mesh4BoneESaIS2_EE8max_sizeEv @236
    _ZNKSt6vectorIN6libAF24Mesh6VertexESaIS2_EE12_M_check_lenEjPKc @237
    _ZNKSt6vectorIN6libAF24Mesh6VertexESaIS2_EE3endEv @238
    _ZNKSt6vectorIN6libAF24Mesh6VertexESaIS2_EE4sizeEv @239
    _ZNKSt6vectorIN6libAF24Mesh6VertexESaIS2_EE5beginEv @240
    _ZNKSt6vectorIN6libAF24Mesh6VertexESaIS2_EE6cbeginEv @241
    _ZNKSt6vectorIN6libAF24Mesh6VertexESaIS2_EE8capacityEv @242
    _ZNKSt6vectorIN6libAF24Mesh6VertexESaIS2_EE8max_sizeEv @243
    _ZNKSt6vectorIN6libAF24Mesh8TriangleESaIS2_EE12_M_check_lenEjPKc @244
    _ZNKSt6vectorIN6libAF24Mesh8TriangleESaIS2_EE3endEv @245
    _ZNKSt6vectorIN6libAF24Mesh8TriangleESaIS2_EE4sizeEv @246
    _ZNKSt6vectorIN6libAF24Mesh8TriangleESaIS2_EE5beginEv @247
    _ZNKSt6vectorIN6libAF24Mesh8TriangleESaIS2_EE6cbeginEv @248
    _ZNKSt6vectorIN6libAF24Mesh8TriangleESaIS2_EE8capacityEv @249
    _ZNKSt6vectorIN6libAF24Mesh8TriangleESaIS2_EE8max_sizeEv @250
    _ZNKSt6vectorIN6libAF25SoundESaIS1_EE12_M_check_lenEjPKc @251
    _ZNKSt6vectorIN6libAF25SoundESaIS1_EE4sizeEv @252
    _ZNKSt6vectorIN6libAF25SoundESaIS1_EE8max_sizeEv @253
    _ZNKSt6vectorIN6libAF29Animation5FrameESaIS2_EE12_M_check_lenEjPKc @254
    _ZNKSt6vectorIN6libAF29Animation5FrameESaIS2_EE3endEv @255
    _ZNKSt6vectorIN6libAF29Animation5FrameESaIS2_EE4sizeEv @256
    _ZNKSt6vectorIN6libAF29Animation5FrameESaIS2_EE5beginEv @257
    _ZNKSt6vectorIN6libAF29Animation5FrameESaIS2_EE8capacityEv @258
    _ZNKSt6vectorIN6libAF29Animation5FrameESaIS2_EE8max_sizeEv @259
    _ZNKSt6vectorIN6libAF29AnimationESaIS1_EE12_M_check_lenEjPKc @260
    _ZNKSt6vectorIN6libAF29AnimationESaIS1_EE4sizeEv @261
    _ZNKSt6vectorIN6libAF29AnimationESaIS1_EE8max_sizeEv @262
    _ZNKSt6vectorISt5arrayIfLj3EESaIS1_EE12_M_check_lenEjPKc @263
    _ZNKSt6vectorISt5arrayIfLj3EESaIS1_EE3endEv @264
    _ZNKSt6vectorISt5arrayIfLj3EESaIS1_EE4sizeEv @265
    _ZNKSt6vectorISt5arrayIfLj3EESaIS1_EE5beginEv @266
    _ZNKSt6vectorISt5arrayIfLj3EESaIS1_EE8capacityEv @267
    _ZNKSt6vectorISt5arrayIfLj3EESaIS1_EE8max_sizeEv @268
    _ZNKSt6vectorIjSaIjEE12_M_check_lenEjPKc @269
    _ZNKSt6vectorIjSaIjEE4sizeEv @270
    _ZNKSt6vectorIjSaIjEE8max_sizeEv @271
    _ZNSaIN6libAF24Mesh4BoneEEC2Ev @272
    _ZNSaIN6libAF24Mesh4BoneEED2Ev @273
    _ZNSaIN6libAF24Mesh6VertexEEC2Ev @274
    _ZNSaIN6libAF24Mesh6VertexEED2Ev @275
    _ZNSaIN6libAF24Mesh8TriangleEEC2Ev @276
    _ZNSaIN6libAF24Mesh8TriangleEED2Ev @277
    _ZNSaIN6libAF29Animation5FrameEEC1ERKS2_ @278
    _ZNSaIN6libAF29Animation5FrameEEC2ERKS2_ @279
    _ZNSaIN6libAF29Animation5FrameEEC2Ev @280
    _ZNSaIN6libAF29Animation5FrameEED1Ev @281
    _ZNSaIN6libAF29Animation5FrameEED2Ev @282
    _ZNSaISt5arrayIfLj3EEEC2Ev @283
    _ZNSaISt5arrayIfLj3EEED2Ev @284
    _ZNSt10_Iter_baseIN9__gnu_cxx17__normal_iteratorIPKN6libAF24Mesh4BoneESt6vectorIS4_SaIS4_EEEELb0EE7_S_baseESA_ @285
    _ZNSt10_Iter_baseIN9__gnu_cxx17__normal_iteratorIPKN6libAF24Mesh4BoneESt6vectorIS4_SaIS4_EEEELb1EE7_S_baseESA_ @286
    _ZNSt10_Iter_baseIN9__gnu_cxx17__normal_iteratorIPKN6libAF24Mesh6VertexESt6vectorIS4_SaIS4_EEEELb0EE7_S_baseESA_ @287
    _ZNSt10_Iter_baseIN9__gnu_cxx17__normal_iteratorIPKN6libAF24Mesh6VertexESt6vectorIS4_SaIS4_EEEELb1EE7_S_baseESA_ @288
    _ZNSt10_Iter_baseIN9__gnu_cxx17__normal_iteratorIPKN6libAF24Mesh8TriangleESt6vectorIS4_SaIS4_EEEELb0EE7_S_baseESA_ @289
    _ZNSt10_Iter_baseIN9__gnu_cxx17__normal_iteratorIPKN6libAF24Mesh8TriangleESt6vectorIS4_SaIS4_EEEELb1EE7_S_baseESA_ @290
    _ZNSt10_Iter_baseIN9__gnu_cxx17__normal_iteratorIPKN6libAF29Animation5FrameESt6vectorIS4_SaIS4_EEEELb0EE7_S_baseESA_ @291
    _ZNSt10_Iter_baseIN9__gnu_cxx17__normal_iteratorIPKN6libAF29Animation5FrameESt6vectorIS4_SaIS4_EEEELb1EE7_S_baseESA_ @292
    _ZNSt10_Iter_baseIN9__gnu_cxx17__normal_iteratorIPKSt5arrayIfLj3EESt6vectorIS3_SaIS3_EEEELb0EE7_S_baseES9_ @293
    _ZNSt10_Iter_baseIN9__gnu_cxx17__normal_iteratorIPKSt5arrayIfLj3EESt6vectorIS3_SaIS3_EEEELb1EE7_S_baseES9_ @294
    _ZNSt10_Iter_baseIN9__gnu_cxx17__normal_iteratorIPN6libAF24Mesh4BoneESt6vectorIS4_SaIS4_EEEELb1EE7_S_baseES9_ @295
    _ZNSt10_Iter_baseIN9__gnu_cxx17__normal_iteratorIPN6libAF24Mesh6VertexESt6vectorIS4_SaIS4_EEEELb1EE7_S_baseES9_ @296
    _ZNSt10_Iter_baseIN9__gnu_cxx17__normal_iteratorIPN6libAF24Mesh8TriangleESt6vectorIS4_SaIS4_EEEELb1EE7_S_baseES9_ @297
    _ZNSt10_Iter_baseIN9__gnu_cxx17__normal_iteratorIPN6libAF29Animation5FrameESt6vectorIS4_SaIS4_EEEELb1EE7_S_baseES9_ @298
    _ZNSt10_Iter_baseIN9__gnu_cxx17__normal_iteratorIPSt5arrayIfLj3EESt6vectorIS3_SaIS3_EEEELb1EE7_S_baseES8_ @299
    _ZNSt10_Iter_baseIPN6libAF24Mesh4BoneELb0EE7_S_baseES3_ @300
    _ZNSt10_Iter_baseIPN6libAF24Mesh6VertexELb0EE7_S_baseES3_ @301
    _ZNSt10_Iter_baseIPN6libAF24Mesh8TriangleELb0EE7_S_baseES3_ @302
    _ZNSt10_Iter_baseIPN6libAF29Animation5FrameELb0EE7_S_baseES3_ @303
    _ZNSt10_Iter_baseIPSt5arrayIfLj3EELb0EE7_S_baseES2_ @304
    _ZNSt10_Iter_baseISt13move_iteratorIPSt5arrayIfLj3EEELb1EE7_S_baseES4_ @305
    _ZNSt11__copy_moveILb0ELb0ESt26random_access_iterator_tagE8__copy_mIPKN6libAF24Mesh4BoneEPS5_EET0_T_SA_S9_ @306
    _ZNSt11__copy_moveILb0ELb0ESt26random_access_iterator_tagE8__copy_mIPKN6libAF24Mesh6VertexEPS5_EET0_T_SA_S9_ @307
    _ZNSt11__copy_moveILb0ELb0ESt26random_access_iterator_tagE8__copy_mIPKN6libAF24Mesh8TriangleEPS5_EET0_T_SA_S9_ @308
    _ZNSt11__copy_moveILb0ELb0ESt26random_access_iterator_tagE8__copy_mIPKN6libAF29Animation5FrameEPS5_EET0_T_SA_S9_ @309
    _ZNSt11__copy_moveILb0ELb0ESt26random_access_iterator_tagE8__copy_mIPN6libAF24Mesh4BoneES6_EET0_T_S8_S7_ @310
    _ZNSt11__copy_moveILb0ELb0ESt26random_access_iterator_tagE8__copy_mIPN6libAF24Mesh6VertexES6_EET0_T_S8_S7_ @311
    _ZNSt11__copy_moveILb0ELb0ESt26random_access_iterator_tagE8__copy_mIPN6libAF24Mesh8TriangleES6_EET0_T_S8_S7_ @312
    _ZNSt11__copy_moveILb0ELb0ESt26random_access_iterator_tagE8__copy_mIPN6libAF29Animation5FrameES6_EET0_T_S8_S7_ @313
    _ZNSt11__copy_moveILb0ELb1ESt26random_access_iterator_tagE8__copy_mISt5arrayIfLj3EEEEPT_PKS5_S8_S6_ @314
    _ZNSt11__copy_moveILb1ELb1ESt26random_access_iterator_tagE8__copy_mISt5arrayIfLj3EEEEPT_PKS5_S8_S6_ @315
    _ZNSt12_Destroy_auxILb0EE9__destroyIN9__gnu_cxx17__normal_iteratorIPN6libAF24Mesh4BoneESt6vectorIS6_SaIS6_EEEEEEvT_SC_ @316
    _ZNSt12_Destroy_auxILb0EE9__destroyIN9__gnu_cxx17__normal_iteratorIPN6libAF29Animation5FrameESt6vectorIS6_SaIS6_EEEEEEvT_SC_ @317
    _ZNSt12_Destroy_auxILb0EE9__destroyIPN6libAF24Mesh4BoneEEEvT_S6_ @318
    _ZNSt12_Destroy_auxILb0EE9__destroyIPN6libAF25SoundEEEvT_S5_ @319
    _ZNSt12_Destroy_auxILb0EE9__destroyIPN6libAF29Animation5FrameEEEvT_S6_ @320
    _ZNSt12_Destroy_auxILb0EE9__destroyIPN6libAF29AnimationEEEvT_S5_ @321
    _ZNSt12_Destroy_auxILb1EE9__destroyIN9__gnu_cxx17__normal_iteratorIPN6libAF24Mesh6VertexESt6vectorIS6_SaIS6_EEEEEEvT_SC_ @322
    _ZNSt12_Destroy_auxILb1EE9__destroyIN9__gnu_cxx17__normal_iteratorIPN6libAF24Mesh8TriangleESt6vectorIS6_SaIS6_EEEEEEvT_SC_ @323
    _ZNSt12_Destroy_auxILb1EE9__destroyIN9__gnu_cxx17__normal_iteratorIPSt5arrayIfLj3EESt6vectorIS5_SaIS5_EEEEEEvT_SB_ @324
    _ZNSt12_Destroy_auxILb1EE9__destroyIPN6libAF24Mesh6VertexEEEvT_S6_ @325
    _ZNSt12_Destroy_auxILb1EE9__destroyIPN6libAF24Mesh8TriangleEEEvT_S6_ @326
    _ZNSt12_Destroy_auxILb1EE9__destroyIPSt5arrayIfLj3EEEEvT_S5_ @327
    _ZNSt12_Destroy_auxILb1EE9__destroyIPjEEvT_S3_ @328
    _ZNSt12_Vector_baseIN6libAF24Mesh4BoneESaIS2_EE11_M_allocateEj @329
    _ZNSt12_Vector_baseIN6libAF24Mesh4BoneESaIS2_EE12_Vector_implC1Ev @330
    _ZNSt12_Vector_baseIN6libAF24Mesh4BoneESaIS2_EE12_Vector_implD1Ev @331
    _ZNSt12_Vector_baseIN6libAF24Mesh4BoneESaIS2_EE13_M_deallocateEPS2_j @332
    _ZNSt12_Vector_baseIN6libAF24Mesh4BoneESaIS2_EE19_M_get_Tp_allocatorEv @333
    _ZNSt12_Vector_baseIN6libAF24Mesh4BoneESaIS2_EEC2Ev @334
    _ZNSt12_Vector_baseIN6libAF24Mesh4BoneESaIS2_EED2Ev @335
    _ZNSt12_Vector_baseIN6libAF24Mesh6VertexESaIS2_EE11_M_allocateEj @336
    _ZNSt12_Vector_baseIN6libAF24Mesh6VertexESaIS2_EE12_Vector_implC1Ev @337
    _ZNSt12_Vector_baseIN6libAF24Mesh6VertexESaIS2_EE12_Vector_implD1Ev @338
    _ZNSt12_Vector_baseIN6libAF24Mesh6VertexESaIS2_EE13_M_deallocateEPS2_j @339
    _ZNSt12_Vector_baseIN6libAF24Mesh6VertexESaIS2_EE19_M_get_Tp_allocatorEv @340
    _ZNSt12_Vector_baseIN6libAF24Mesh6VertexESaIS2_EEC2Ev @341
    _ZNSt12_Vector_baseIN6libAF24Mesh6VertexESaIS2_EED2Ev @342
    _ZNSt12_Vector_baseIN6libAF24Mesh8TriangleESaIS2_EE11_M_allocateEj @343
    _ZNSt12_Vector_baseIN6libAF24Mesh8TriangleESaIS2_EE12_Vector_implC1Ev @344
    _ZNSt12_Vector_baseIN6libAF24Mesh8TriangleESaIS2_EE12_Vector_implD1Ev @345
    _ZNSt12_Vector_baseIN6libAF24Mesh8TriangleESaIS2_EE13_M_deallocateEPS2_j @346
    _ZNSt12_Vector_baseIN6libAF24Mesh8TriangleESaIS2_EE19_M_get_Tp_allocatorEv @347
    _ZNSt12_Vector_baseIN6libAF24Mesh8TriangleESaIS2_EEC2Ev @348
    _ZNSt12_Vector_baseIN6libAF24Mesh8TriangleESaIS2_EED2Ev @349
    _ZNSt12_Vector_baseIN6libAF25SoundESaIS1_EE11_M_allocateEj @350
    _ZNSt12_Vector_baseIN6libAF25SoundESaIS1_EE13_M_deallocateEPS1_j @351
    _ZNSt12_Vector_baseIN6libAF25SoundESaIS1_EE19_M_get_Tp_allocatorEv @352
    _ZNSt12_Vector_baseIN6libAF29Animation5FrameESaIS2_EE11_M_allocateEj @353
    _ZNSt12_Vector_baseIN6libAF29Animation5FrameESaIS2_EE12_Vector_implC1ERKS3_ @354
    _ZNSt12_Vector_baseIN6libAF29Animation5FrameESaIS2_EE12_Vector_implC1Ev @355
    _ZNSt12_Vector_baseIN6libAF29Animation5FrameESaIS2_EE12_Vector_implD1Ev @356
    _ZNSt12_Vector_baseIN6libAF29Animation5FrameESaIS2_EE13_M_deallocateEPS2_j @357
    _ZNSt12_Vector_baseIN6libAF29Animation5FrameESaIS2_EE17_M_create_storageEj @358
    _ZNSt12_Vector_baseIN6libAF29Animation5FrameESaIS2_EE19_M_get_Tp_allocatorEv @359
    _ZNSt12_Vector_baseIN6libAF29Animation5FrameESaIS2_EEC2EjRKS3_ @360
    _ZNSt12_Vector_baseIN6libAF29Animation5FrameESaIS2_EEC2Ev @361
    _ZNSt12_Vector_baseIN6libAF29Animation5FrameESaIS2_EED2Ev @362
    _ZNSt12_Vector_baseIN6libAF29AnimationESaIS1_EE11_M_allocateEj @363
    _ZNSt12_Vector_baseIN6libAF29AnimationESaIS1_EE13_M_deallocateEPS1_j @364
    _ZNSt12_Vector_baseIN6libAF29AnimationESaIS1_EE19_M_get_Tp_allocatorEv @365
    _ZNSt12_Vector_baseISt5arrayIfLj3EESaIS1_EE11_M_allocateEj @366
    _ZNSt12_Vector_baseISt5arrayIfLj3EESaIS1_EE12_Vector_implC1Ev @367
    _ZNSt12_Vector_baseISt5arrayIfLj3EESaIS1_EE12_Vector_implD1Ev @368
    _ZNSt12_Vector_baseISt5arrayIfLj3EESaIS1_EE13_M_deallocateEPS1_j @369
    _ZNSt12_Vector_baseISt5arrayIfLj3EESaIS1_EE19_M_get_Tp_allocatorEv @370
    _ZNSt12_Vector_baseISt5arrayIfLj3EESaIS1_EEC2Ev @371
    _ZNSt12_Vector_baseISt5arrayIfLj3EESaIS1_EED2Ev @372
    _ZNSt12_Vector_baseIjSaIjEE11_M_allocateEj @373
    _ZNSt12_Vector_baseIjSaIjEE13_M_deallocateEPjj @374
    _ZNSt12_Vector_baseIjSaIjEE19_M_get_Tp_allocatorEv @375
    _ZNSt13move_iteratorIPN6libAF24Mesh4BoneEEC1ES3_ @376
    _ZNSt13move_iteratorIPN6libAF24Mesh4BoneEEppEv @377
    _ZNSt13move_iteratorIPN6libAF24Mesh6VertexEEC1ES3_ @378
    _ZNSt13move_iteratorIPN6libAF24Mesh6VertexEEppEv @379
    _ZNSt13move_iteratorIPN6libAF24Mesh8TriangleEEC1ES3_ @380
    _ZNSt13move_iteratorIPN6libAF24Mesh8TriangleEEppEv @381
    _ZNSt13move_iteratorIPSt5arrayIfLj3EEEC1ES2_ @382
    _ZNSt13move_iteratorIPjEC1ES0_ @383
    _ZNSt13move_iteratorIPjEppEv @384
    _ZNSt14__array_traitsIfLj3EE6_S_refERA3_Kfj @385
    _ZNSt16allocator_traitsISaIN6libAF24Mesh4BoneEEE10_S_destroyIS2_EENSt9enable_ifIXsrSt6__and_IINS4_16__destroy_helperIT_E4typeEEE5valueEvE4typeERS3_PS9_ @386
    _ZNSt16allocator_traitsISaIN6libAF24Mesh4BoneEEE10deallocateERS3_PS2_j @387
    _ZNSt16allocator_traitsISaIN6libAF24Mesh4BoneEEE11_S_max_sizeIKS3_vEEjRT_i @388
    _ZNSt16allocator_traitsISaIN6libAF24Mesh4BoneEEE12_S_constructIS2_IRKS2_EEENSt9enable_ifIXsrSt6__and_IINS4_18__construct_helperIT_IDpT0_EE4typeEEE5valueEvE4typeERS3_PSB_DpOSC_ @389
    _ZNSt16allocator_traitsISaIN6libAF24Mesh4BoneEEE7destroyIS2_EEvRS3_PT_ @390
    _ZNSt16allocator_traitsISaIN6libAF24Mesh4BoneEEE8allocateERS3_j @391
    _ZNSt16allocator_traitsISaIN6libAF24Mesh4BoneEEE8max_sizeERKS3_ @392
    _ZNSt16allocator_traitsISaIN6libAF24Mesh4BoneEEE9constructIS2_IRKS2_EEEDTcl12_S_constructfp_fp0_spcl7forwardIT0_Efp1_EEERS3_PT_DpOS8_ @393
    _ZNSt16allocator_traitsISaIN6libAF24Mesh6VertexEEE10_S_destroyIS2_EENSt9enable_ifIXsrSt6__and_IINS4_16__destroy_helperIT_E4typeEEE5valueEvE4typeERS3_PS9_ @394
    _ZNSt16allocator_traitsISaIN6libAF24Mesh6VertexEEE10deallocateERS3_PS2_j @395
    _ZNSt16allocator_traitsISaIN6libAF24Mesh6VertexEEE11_S_max_sizeIKS3_vEEjRT_i @396
    _ZNSt16allocator_traitsISaIN6libAF24Mesh6VertexEEE12_S_constructIS2_IRKS2_EEENSt9enable_ifIXsrSt6__and_IINS4_18__construct_helperIT_IDpT0_EE4typeEEE5valueEvE4typeERS3_PSB_DpOSC_ @397
    _ZNSt16allocator_traitsISaIN6libAF24Mesh6VertexEEE7destroyIS2_EEvRS3_PT_ @398
    _ZNSt16allocator_traitsISaIN6libAF24Mesh6VertexEEE8allocateERS3_j @399
    _ZNSt16allocator_traitsISaIN6libAF24Mesh6VertexEEE8max_sizeERKS3_ @400
    _ZNSt16allocator_traitsISaIN6libAF24Mesh6VertexEEE9constructIS2_IRKS2_EEEDTcl12_S_constructfp_fp0_spcl7forwardIT0_Efp1_EEERS3_PT_DpOS8_ @401
    _ZNSt16allocator_traitsISaIN6libAF24Mesh8TriangleEEE10_S_destroyIS2_EENSt9enable_ifIXsrSt6__and_IINS4_16__destroy_helperIT_E4typeEEE5valueEvE4typeERS3_PS9_ @402
    _ZNSt16allocator_traitsISaIN6libAF24Mesh8TriangleEEE10deallocateERS3_PS2_j @403
    _ZNSt16allocator_traitsISaIN6libAF24Mesh8TriangleEEE11_S_max_sizeIKS3_vEEjRT_i @404
    _ZNSt16allocator_traitsISaIN6libAF24Mesh8TriangleEEE12_S_constructIS2_IRKS2_EEENSt9enable_ifIXsrSt6__and_IINS4_18__construct_helperIT_IDpT0_EE4typeEEE5valueEvE4typeERS3_PSB_DpOSC_ @405
    _ZNSt16allocator_traitsISaIN6libAF24Mesh8TriangleEEE7destroyIS2_EEvRS3_PT_ @406
    _ZNSt16allocator_traitsISaIN6libAF24Mesh8TriangleEEE8allocateERS3_j @407
    _ZNSt16allocator_traitsISaIN6libAF24Mesh8TriangleEEE8max_sizeERKS3_ @408
    _ZNSt16allocator_traitsISaIN6libAF24Mesh8TriangleEEE9constructIS2_IRKS2_EEEDTcl12_S_constructfp_fp0_spcl7forwardIT0_Efp1_EEERS3_PT_DpOS8_ @409
    _ZNSt16allocator_traitsISaIN6libAF25SoundEEE10_S_destroyIS1_EENSt9enable_ifIXsrSt6__and_IINS3_16__destroy_helperIT_E4typeEEE5valueEvE4typeERS2_PS8_ @410
    _ZNSt16allocator_traitsISaIN6libAF25SoundEEE10deallocateERS2_PS1_j @411
    _ZNSt16allocator_traitsISaIN6libAF25SoundEEE11_S_max_sizeIKS2_vEEjRT_i @412
    _ZNSt16allocator_traitsISaIN6libAF25SoundEEE12_S_constructIS1_IRKS1_EEENSt9enable_ifIXsrSt6__and_IINS3_18__construct_helperIT_IDpT0_EE4typeEEE5valueEvE4typeERS2_PSA_DpOSB_ @413
    _ZNSt16allocator_traitsISaIN6libAF25SoundEEE7destroyIS1_EEvRS2_PT_ @414
    _ZNSt16allocator_traitsISaIN6libAF25SoundEEE8allocateERS2_j @415
    _ZNSt16allocator_traitsISaIN6libAF25SoundEEE8max_sizeERKS2_ @416
    _ZNSt16allocator_traitsISaIN6libAF25SoundEEE9constructIS1_IRKS1_EEEDTcl12_S_constructfp_fp0_spcl7forwardIT0_Efp1_EEERS2_PT_DpOS7_ @417
    _ZNSt16allocator_traitsISaIN6libAF29Animation5FrameEEE10_S_destroyIS2_EENSt9enable_ifIXsrSt6__and_IINS4_16__destroy_helperIT_E4typeEEE5valueEvE4typeERS3_PS9_ @418
    _ZNSt16allocator_traitsISaIN6libAF29Animation5FrameEEE10deallocateERS3_PS2_j @419
    _ZNSt16allocator_traitsISaIN6libAF29Animation5FrameEEE11_S_max_sizeIKS3_vEEjRT_i @420
    _ZNSt16allocator_traitsISaIN6libAF29Animation5FrameEEE12_S_constructIS2_IRKS2_EEENSt9enable_ifIXsrSt6__and_IINS4_18__construct_helperIT_IDpT0_EE4typeEEE5valueEvE4typeERS3_PSB_DpOSC_ @421
    _ZNSt16allocator_traitsISaIN6libAF29Animation5FrameEEE37select_on_container_copy_constructionERKS3_ @422
    _ZNSt16allocator_traitsISaIN6libAF29Animation5FrameEEE7destroyIS2_EEvRS3_PT_ @423
    _ZNSt16allocator_traitsISaIN6libAF29Animation5FrameEEE8allocateERS3_j @424
    _ZNSt16allocator_traitsISaIN6libAF29Animation5FrameEEE8max_sizeERKS3_ @425
    _ZNSt16allocator_traitsISaIN6libAF29Animation5FrameEEE9_S_selectIKS3_vEET_RS7_z @426
    _ZNSt16allocator_traitsISaIN6libAF29Animation5FrameEEE9constructIS2_IRKS2_EEEDTcl12_S_constructfp_fp0_spcl7forwardIT0_Efp1_EEERS3_PT_DpOS8_ @427
    _ZNSt16allocator_traitsISaIN6libAF29AnimationEEE10_S_destroyIS1_EENSt9enable_ifIXsrSt6__and_IINS3_16__destroy_helperIT_E4typeEEE5valueEvE4typeERS2_PS8_ @428
    _ZNSt16allocator_traitsISaIN6libAF29AnimationEEE10deallocateERS2_PS1_j @429
    _ZNSt16allocator_traitsISaIN6libAF29AnimationEEE11_S_max_sizeIKS2_vEEjRT_i @430
    _ZNSt16allocator_traitsISaIN6libAF29AnimationEEE12_S_constructIS1_IRKS1_EEENSt9enable_ifIXsrSt6__and_IINS3_18__construct_helperIT_IDpT0_EE4typeEEE5valueEvE4typeERS2_PSA_DpOSB_ @431
    _ZNSt16allocator_traitsISaIN6libAF29AnimationEEE7destroyIS1_EEvRS2_PT_ @432
    _ZNSt16allocator_traitsISaIN6libAF29AnimationEEE8allocateERS2_j @433
    _ZNSt16allocator_traitsISaIN6libAF29AnimationEEE8max_sizeERKS2_ @434
    _ZNSt16allocator_traitsISaIN6libAF29AnimationEEE9constructIS1_IRKS1_EEEDTcl12_S_constructfp_fp0_spcl7forwardIT0_Efp1_EEERS2_PT_DpOS7_ @435
    _ZNSt16allocator_traitsISaISt5arrayIfLj3EEEE10_S_destroyIS1_EENSt9enable_ifIXsrSt6__and_IINS3_16__destroy_helperIT_E4typeEEE5valueEvE4typeERS2_PS8_ @436
    _ZNSt16allocator_traitsISaISt5arrayIfLj3EEEE10deallocateERS2_PS1_j @437
    _ZNSt16allocator_traitsISaISt5arrayIfLj3EEEE11_S_max_sizeIKS2_vEEjRT_i @438
    _ZNSt16allocator_traitsISaISt5arrayIfLj3EEEE12_S_constructIS1_IRKS1_EEENSt9enable_ifIXsrSt6__and_IINS3_18__construct_helperIT_IDpT0_EE4typeEEE5valueEvE4typeERS2_PSA_DpOSB_ @439
    _ZNSt16allocator_traitsISaISt5arrayIfLj3EEEE7destroyIS1_EEvRS2_PT_ @440
    _ZNSt16allocator_traitsISaISt5arrayIfLj3EEEE8allocateERS2_j @441
    _ZNSt16allocator_traitsISaISt5arrayIfLj3EEEE8max_sizeERKS2_ @442
    _ZNSt16allocator_traitsISaISt5arrayIfLj3EEEE9constructIS1_IRKS1_EEEDTcl12_S_constructfp_fp0_spcl7forwardIT0_Efp1_EEERS2_PT_DpOS7_ @443
    _ZNSt16allocator_traitsISaIjEE10_S_destroyIjEENSt9enable_ifIXsrSt6__and_IINS1_16__destroy_helperIT_E4typeEEE5valueEvE4typeERS0_PS6_ @444
    _ZNSt16allocator_traitsISaIjEE10deallocateERS0_Pjj @445
    _ZNSt16allocator_traitsISaIjEE11_S_max_sizeIKS0_vEEjRT_i @446
    _ZNSt16allocator_traitsISaIjEE12_S_constructIjIRKjEEENSt9enable_ifIXsrSt6__and_IINS1_18__construct_helperIT_IDpT0_EE4typeEEE5valueEvE4typeERS0_PS8_DpOS9_ @447
    _ZNSt16allocator_traitsISaIjEE7destroyIjEEvRS0_PT_ @448
    _ZNSt16allocator_traitsISaIjEE8allocateERS0_j @449
    _ZNSt16allocator_traitsISaIjEE8max_sizeERKS0_ @450
    _ZNSt16allocator_traitsISaIjEE9constructIjIRKjEEEDTcl12_S_constructfp_fp0_spcl7forwardIT0_Efp1_EEERS0_PT_DpOS5_ @451
    _ZNSt20__copy_move_backwardILb1ELb0ESt26random_access_iterator_tagE13__copy_move_bIPN6libAF24Mesh4BoneES6_EET0_T_S8_S7_ @452
    _ZNSt20__copy_move_backwardILb1ELb0ESt26random_access_iterator_tagE13__copy_move_bIPN6libAF24Mesh6VertexES6_EET0_T_S8_S7_ @453
    _ZNSt20__copy_move_backwardILb1ELb0ESt26random_access_iterator_tagE13__copy_move_bIPN6libAF24Mesh8TriangleES6_EET0_T_S8_S7_ @454
    _ZNSt20__uninitialized_copyILb0EE13__uninit_copyIN9__gnu_cxx17__normal_iteratorIPKN6libAF24Mesh4BoneESt6vectorIS6_SaIS6_EEEEPS6_EET0_T_SF_SE_ @455
    _ZNSt20__uninitialized_copyILb0EE13__uninit_copyIN9__gnu_cxx17__normal_iteratorIPKN6libAF24Mesh6VertexESt6vectorIS6_SaIS6_EEEEPS6_EET0_T_SF_SE_ @456
    _ZNSt20__uninitialized_copyILb0EE13__uninit_copyIN9__gnu_cxx17__normal_iteratorIPKN6libAF24Mesh8TriangleESt6vectorIS6_SaIS6_EEEEPS6_EET0_T_SF_SE_ @457
    _ZNSt20__uninitialized_copyILb0EE13__uninit_copyIN9__gnu_cxx17__normal_iteratorIPKN6libAF29Animation5FrameESt6vectorIS6_SaIS6_EEEEPS6_EET0_T_SF_SE_ @458
    _ZNSt20__uninitialized_copyILb0EE13__uninit_copyIPN6libAF24Mesh4BoneES5_EET0_T_S7_S6_ @459
    _ZNSt20__uninitialized_copyILb0EE13__uninit_copyIPN6libAF24Mesh6VertexES5_EET0_T_S7_S6_ @460
    _ZNSt20__uninitialized_copyILb0EE13__uninit_copyIPN6libAF24Mesh8TriangleES5_EET0_T_S7_S6_ @461
    _ZNSt20__uninitialized_copyILb0EE13__uninit_copyIPN6libAF25SoundES4_EET0_T_S6_S5_ @462
    _ZNSt20__uninitialized_copyILb0EE13__uninit_copyIPN6libAF29Animation5FrameES5_EET0_T_S7_S6_ @463
    _ZNSt20__uninitialized_copyILb0EE13__uninit_copyIPN6libAF29AnimationES4_EET0_T_S6_S5_ @464
    _ZNSt20__uninitialized_copyILb0EE13__uninit_copyISt13move_iteratorIPN6libAF24Mesh4BoneEES6_EET0_T_S9_S8_ @465
    _ZNSt20__uninitialized_copyILb0EE13__uninit_copyISt13move_iteratorIPN6libAF24Mesh6VertexEES6_EET0_T_S9_S8_ @466
    _ZNSt20__uninitialized_copyILb0EE13__uninit_copyISt13move_iteratorIPN6libAF24Mesh8TriangleEES6_EET0_T_S9_S8_ @467
    _ZNSt20__uninitialized_copyILb0EE13__uninit_copyISt13move_iteratorIPjES3_EET0_T_S6_S5_ @468
    _ZNSt20__uninitialized_copyILb1EE13__uninit_copyIN9__gnu_cxx17__normal_iteratorIPKSt5arrayIfLj3EESt6vectorIS5_SaIS5_EEEEPS5_EET0_T_SE_SD_ @469
    _ZNSt20__uninitialized_copyILb1EE13__uninit_copyIPSt5arrayIfLj3EES4_EET0_T_S6_S5_ @470
    _ZNSt20__uninitialized_copyILb1EE13__uninit_copyISt13move_iteratorIPSt5arrayIfLj3EEES5_EET0_T_S8_S7_ @471
    _ZNSt5arrayIfLj3EEixEj @472
    _ZNSt6vectorIN6libAF24Mesh4BoneESaIS2_EE15_M_erase_at_endEPS2_ @473
    _ZNSt6vectorIN6libAF24Mesh4BoneESaIS2_EE15_M_range_insertIN9__gnu_cxx17__normal_iteratorIPKS2_S4_EEEEvNS7_IPS2_S4_EET_SD_St20forward_iterator_tag @474
    _ZNSt6vectorIN6libAF24Mesh4BoneESaIS2_EE18_M_insert_dispatchIN9__gnu_cxx17__normal_iteratorIPKS2_S4_EEEEvNS7_IPS2_S4_EET_SD_St12__false_type @475
    _ZNSt6vectorIN6libAF24Mesh4BoneESaIS2_EE19_M_emplace_back_auxIIRKS2_EEEvDpOT_ @476
    _ZNSt6vectorIN6libAF24Mesh4BoneESaIS2_EE20_M_allocate_and_copyIN9__gnu_cxx17__normal_iteratorIPKS2_S4_EEEEPS2_jT_SC_ @477
    _ZNSt6vectorIN6libAF24Mesh4BoneESaIS2_EE3endEv @478
    _ZNSt6vectorIN6libAF24Mesh4BoneESaIS2_EE5beginEv @479
    _ZNSt6vectorIN6libAF24Mesh4BoneESaIS2_EE5clearEv @480
    _ZNSt6vectorIN6libAF24Mesh4BoneESaIS2_EE6insertIN9__gnu_cxx17__normal_iteratorIPKS2_S4_EEvEENS7_IPS2_S4_EESA_T_SD_ @481
    _ZNSt6vectorIN6libAF24Mesh4BoneESaIS2_EE9push_backERKS2_ @482
    _ZNSt6vectorIN6libAF24Mesh4BoneESaIS2_EEC1Ev @483
    _ZNSt6vectorIN6libAF24Mesh4BoneESaIS2_EED1Ev @484
    _ZNSt6vectorIN6libAF24Mesh4BoneESaIS2_EEaSERKS4_ @485
    _ZNSt6vectorIN6libAF24Mesh4BoneESaIS2_EEixEj @486
    _ZNSt6vectorIN6libAF24Mesh6VertexESaIS2_EE15_M_erase_at_endEPS2_ @487
    _ZNSt6vectorIN6libAF24Mesh6VertexESaIS2_EE15_M_range_insertIN9__gnu_cxx17__normal_iteratorIPKS2_S4_EEEEvNS7_IPS2_S4_EET_SD_St20forward_iterator_tag @488
    _ZNSt6vectorIN6libAF24Mesh6VertexESaIS2_EE18_M_insert_dispatchIN9__gnu_cxx17__normal_iteratorIPKS2_S4_EEEEvNS7_IPS2_S4_EET_SD_St12__false_type @489
    _ZNSt6vectorIN6libAF24Mesh6VertexESaIS2_EE19_M_emplace_back_auxIIRKS2_EEEvDpOT_ @490
    _ZNSt6vectorIN6libAF24Mesh6VertexESaIS2_EE20_M_allocate_and_copyIN9__gnu_cxx17__normal_iteratorIPKS2_S4_EEEEPS2_jT_SC_ @491
    _ZNSt6vectorIN6libAF24Mesh6VertexESaIS2_EE3endEv @492
    _ZNSt6vectorIN6libAF24Mesh6VertexESaIS2_EE5beginEv @493
    _ZNSt6vectorIN6libAF24Mesh6VertexESaIS2_EE5clearEv @494
    _ZNSt6vectorIN6libAF24Mesh6VertexESaIS2_EE6insertIN9__gnu_cxx17__normal_iteratorIPKS2_S4_EEvEENS7_IPS2_S4_EESA_T_SD_ @495
    _ZNSt6vectorIN6libAF24Mesh6VertexESaIS2_EE9push_backERKS2_ @496
    _ZNSt6vectorIN6libAF24Mesh6VertexESaIS2_EEC1Ev @497
    _ZNSt6vectorIN6libAF24Mesh6VertexESaIS2_EED1Ev @498
    _ZNSt6vectorIN6libAF24Mesh6VertexESaIS2_EEaSERKS4_ @499
    _ZNSt6vectorIN6libAF24Mesh6VertexESaIS2_EEixEj @500
    _ZNSt6vectorIN6libAF24Mesh8TriangleESaIS2_EE15_M_erase_at_endEPS2_ @501
    _ZNSt6vectorIN6libAF24Mesh8TriangleESaIS2_EE15_M_range_insertIN9__gnu_cxx17__normal_iteratorIPKS2_S4_EEEEvNS7_IPS2_S4_EET_SD_St20forward_iterator_tag @502
    _ZNSt6vectorIN6libAF24Mesh8TriangleESaIS2_EE18_M_insert_dispatchIN9__gnu_cxx17__normal_iteratorIPKS2_S4_EEEEvNS7_IPS2_S4_EET_SD_St12__false_type @503
    _ZNSt6vectorIN6libAF24Mesh8TriangleESaIS2_EE19_M_emplace_back_auxIIRKS2_EEEvDpOT_ @504
    _ZNSt6vectorIN6libAF24Mesh8TriangleESaIS2_EE20_M_allocate_and_copyIN9__gnu_cxx17__normal_iteratorIPKS2_S4_EEEEPS2_jT_SC_ @505
    _ZNSt6vectorIN6libAF24Mesh8TriangleESaIS2_EE3endEv @506
    _ZNSt6vectorIN6libAF24Mesh8TriangleESaIS2_EE5beginEv @507
    _ZNSt6vectorIN6libAF24Mesh8TriangleESaIS2_EE5clearEv @508
    _ZNSt6vectorIN6libAF24Mesh8TriangleESaIS2_EE6insertIN9__gnu_cxx17__normal_iteratorIPKS2_S4_EEvEENS7_IPS2_S4_EESA_T_SD_ @509
    _ZNSt6vectorIN6libAF24Mesh8TriangleESaIS2_EE9push_backERKS2_ @510
    _ZNSt6vectorIN6libAF24Mesh8TriangleESaIS2_EEC1Ev @511
    _ZNSt6vectorIN6libAF24Mesh8TriangleESaIS2_EED1Ev @512
    _ZNSt6vectorIN6libAF24Mesh8TriangleESaIS2_EEaSERKS4_ @513
    _ZNSt6vectorIN6libAF24Mesh8TriangleESaIS2_EEixEj @514
    _ZNSt6vectorIN6libAF25SoundESaIS1_EE19_M_emplace_back_auxIIRKS1_EEEvDpOT_ @515
    _ZNSt6vectorIN6libAF25SoundESaIS1_EE9push_backERKS1_ @516
    _ZNSt6vectorIN6libAF29Animation5FrameESaIS2_EE15_M_erase_at_endEPS2_ @517
    _ZNSt6vectorIN6libAF29Animation5FrameESaIS2_EE19_M_emplace_back_auxIIRKS2_EEEvDpOT_ @518
    _ZNSt6vectorIN6libAF29Animation5FrameESaIS2_EE20_M_allocate_and_copyIN9__gnu_cxx17__normal_iteratorIPKS2_S4_EEEEPS2_jT_SC_ @519
    _ZNSt6vectorIN6libAF29Animation5FrameESaIS2_EE3endEv @520
    _ZNSt6vectorIN6libAF29Animation5FrameESaIS2_EE5beginEv @521
    _ZNSt6vectorIN6libAF29Animation5FrameESaIS2_EE5clearEv @522
    _ZNSt6vectorIN6libAF29Animation5FrameESaIS2_EE9push_backERKS2_ @523
    _ZNSt6vectorIN6libAF29Animation5FrameESaIS2_EEC1ERKS4_ @524
    _ZNSt6vectorIN6libAF29Animation5FrameESaIS2_EEC1Ev @525
    _ZNSt6vectorIN6libAF29Animation5FrameESaIS2_EED1Ev @526
    _ZNSt6vectorIN6libAF29Animation5FrameESaIS2_EEaSERKS4_ @527
    _ZNSt6vectorIN6libAF29Animation5FrameESaIS2_EEixEj @528
    _ZNSt6vectorIN6libAF29AnimationESaIS1_EE19_M_emplace_back_auxIIRKS1_EEEvDpOT_ @529
    _ZNSt6vectorIN6libAF29AnimationESaIS1_EE9push_backERKS1_ @530
    _ZNSt6vectorISt5arrayIfLj3EESaIS1_EE15_M_erase_at_endEPS1_ @531
    _ZNSt6vectorISt5arrayIfLj3EESaIS1_EE19_M_emplace_back_auxIIRKS1_EEEvDpOT_ @532
    _ZNSt6vectorISt5arrayIfLj3EESaIS1_EE20_M_allocate_and_copyIN9__gnu_cxx17__normal_iteratorIPKS1_S3_EEEEPS1_jT_SB_ @533
    _ZNSt6vectorISt5arrayIfLj3EESaIS1_EE3endEv @534
    _ZNSt6vectorISt5arrayIfLj3EESaIS1_EE5beginEv @535
    _ZNSt6vectorISt5arrayIfLj3EESaIS1_EE5clearEv @536
    _ZNSt6vectorISt5arrayIfLj3EESaIS1_EE9push_backERKS1_ @537
    _ZNSt6vectorISt5arrayIfLj3EESaIS1_EEC1Ev @538
    _ZNSt6vectorISt5arrayIfLj3EESaIS1_EED1Ev @539
    _ZNSt6vectorISt5arrayIfLj3EESaIS1_EEaSERKS3_ @540
    _ZNSt6vectorIjSaIjEE19_M_emplace_back_auxIIRKjEEEvDpOT_ @541
    _ZNSt6vectorIjSaIjEE9push_backERKj @542
    _ZSt10_ConstructIN6libAF24Mesh4BoneEIRKS2_EEvPT_DpOT0_ @543
    _ZSt10_ConstructIN6libAF24Mesh4BoneEIRS2_EEvPT_DpOT0_ @544
    _ZSt10_ConstructIN6libAF24Mesh4BoneEIS2_EEvPT_DpOT0_ @545
    _ZSt10_ConstructIN6libAF24Mesh6VertexEIRKS2_EEvPT_DpOT0_ @546
    _ZSt10_ConstructIN6libAF24Mesh6VertexEIRS2_EEvPT_DpOT0_ @547
    _ZSt10_ConstructIN6libAF24Mesh6VertexEIS2_EEvPT_DpOT0_ @548
    _ZSt10_ConstructIN6libAF24Mesh8TriangleEIRKS2_EEvPT_DpOT0_ @549
    _ZSt10_ConstructIN6libAF24Mesh8TriangleEIRS2_EEvPT_DpOT0_ @550
    _ZSt10_ConstructIN6libAF24Mesh8TriangleEIS2_EEvPT_DpOT0_ @551
    _ZSt10_ConstructIN6libAF25SoundEIRS1_EEvPT_DpOT0_ @552
    _ZSt10_ConstructIN6libAF29Animation5FrameEIRKS2_EEvPT_DpOT0_ @553
    _ZSt10_ConstructIN6libAF29Animation5FrameEIRS2_EEvPT_DpOT0_ @554
    _ZSt10_ConstructIN6libAF29AnimationEIRS1_EEvPT_DpOT0_ @555
    _ZSt10_ConstructIjIjEEvPT_DpOT0_ @556
    _ZSt10__distanceIN9__gnu_cxx17__normal_iteratorIPKN6libAF24Mesh4BoneESt6vectorIS4_SaIS4_EEEEENSt15iterator_traitsIT_E15difference_typeESC_SC_St26random_access_iterator_tag @557
    _ZSt10__distanceIN9__gnu_cxx17__normal_iteratorIPKN6libAF24Mesh6VertexESt6vectorIS4_SaIS4_EEEEENSt15iterator_traitsIT_E15difference_typeESC_SC_St26random_access_iterator_tag @558
    _ZSt10__distanceIN9__gnu_cxx17__normal_iteratorIPKN6libAF24Mesh8TriangleESt6vectorIS4_SaIS4_EEEEENSt15iterator_traitsIT_E15difference_typeESC_SC_St26random_access_iterator_tag @559
    _ZSt11__addressofIN6libAF24Mesh4BoneEEPT_RS3_ @560
    _ZSt11__addressofIN6libAF24Mesh6VertexEEPT_RS3_ @561
    _ZSt11__addressofIN6libAF24Mesh8TriangleEEPT_RS3_ @562
    _ZSt11__addressofIN6libAF25SoundEEPT_RS2_ @563
    _ZSt11__addressofIN6libAF29Animation5FrameEEPT_RS3_ @564
    _ZSt11__addressofIN6libAF29AnimationEEPT_RS2_ @565
    _ZSt11__addressofIjEPT_RS0_ @566
    _ZSt12__miter_baseIN9__gnu_cxx17__normal_iteratorIPKN6libAF24Mesh4BoneESt6vectorIS4_SaIS4_EEEEENSt11_Miter_baseIT_E13iterator_typeESC_ @567
    _ZSt12__miter_baseIN9__gnu_cxx17__normal_iteratorIPKN6libAF24Mesh6VertexESt6vectorIS4_SaIS4_EEEEENSt11_Miter_baseIT_E13iterator_typeESC_ @568
    _ZSt12__miter_baseIN9__gnu_cxx17__normal_iteratorIPKN6libAF24Mesh8TriangleESt6vectorIS4_SaIS4_EEEEENSt11_Miter_baseIT_E13iterator_typeESC_ @569
    _ZSt12__miter_baseIN9__gnu_cxx17__normal_iteratorIPKN6libAF29Animation5FrameESt6vectorIS4_SaIS4_EEEEENSt11_Miter_baseIT_E13iterator_typeESC_ @570
    _ZSt12__miter_baseIN9__gnu_cxx17__normal_iteratorIPKSt5arrayIfLj3EESt6vectorIS3_SaIS3_EEEEENSt11_Miter_baseIT_E13iterator_typeESB_ @571
    _ZSt12__miter_baseIPN6libAF24Mesh4BoneEENSt11_Miter_baseIT_E13iterator_typeES5_ @572
    _ZSt12__miter_baseIPN6libAF24Mesh6VertexEENSt11_Miter_baseIT_E13iterator_typeES5_ @573
    _ZSt12__miter_baseIPN6libAF24Mesh8TriangleEENSt11_Miter_baseIT_E13iterator_typeES5_ @574
    _ZSt12__miter_baseIPN6libAF29Animation5FrameEENSt11_Miter_baseIT_E13iterator_typeES5_ @575
    _ZSt12__miter_baseIPSt5arrayIfLj3EEENSt11_Miter_baseIT_E13iterator_typeES4_ @576
    _ZSt12__miter_baseISt13move_iteratorIPSt5arrayIfLj3EEEENSt11_Miter_baseIT_E13iterator_typeES6_ @577
    _ZSt12__niter_baseIN9__gnu_cxx17__normal_iteratorIPKN6libAF24Mesh4BoneESt6vectorIS4_SaIS4_EEEEENSt11_Niter_baseIT_E13iterator_typeESC_ @578
    _ZSt12__niter_baseIN9__gnu_cxx17__normal_iteratorIPKN6libAF24Mesh6VertexESt6vectorIS4_SaIS4_EEEEENSt11_Niter_baseIT_E13iterator_typeESC_ @579
    _ZSt12__niter_baseIN9__gnu_cxx17__normal_iteratorIPKN6libAF24Mesh8TriangleESt6vectorIS4_SaIS4_EEEEENSt11_Niter_baseIT_E13iterator_typeESC_ @580
    _ZSt12__niter_baseIN9__gnu_cxx17__normal_iteratorIPKN6libAF29Animation5FrameESt6vectorIS4_SaIS4_EEEEENSt11_Niter_baseIT_E13iterator_typeESC_ @581
    _ZSt12__niter_baseIN9__gnu_cxx17__normal_iteratorIPKSt5arrayIfLj3EESt6vectorIS3_SaIS3_EEEEENSt11_Niter_baseIT_E13iterator_typeESB_ @582
    _ZSt12__niter_baseIN9__gnu_cxx17__normal_iteratorIPN6libAF24Mesh4BoneESt6vectorIS4_SaIS4_EEEEENSt11_Niter_baseIT_E13iterator_typeESB_ @583
    _ZSt12__niter_baseIN9__gnu_cxx17__normal_iteratorIPN6libAF24Mesh6VertexESt6vectorIS4_SaIS4_EEEEENSt11_Niter_baseIT_E13iterator_typeESB_ @584
    _ZSt12__niter_baseIN9__gnu_cxx17__normal_iteratorIPN6libAF24Mesh8TriangleESt6vectorIS4_SaIS4_EEEEENSt11_Niter_baseIT_E13iterator_typeESB_ @585
    _ZSt12__niter_baseIN9__gnu_cxx17__normal_iteratorIPN6libAF29Animation5FrameESt6vectorIS4_SaIS4_EEEEENSt11_Niter_baseIT_E13iterator_typeESB_ @586
    _ZSt12__niter_baseIN9__gnu_cxx17__normal_iteratorIPSt5arrayIfLj3EESt6vectorIS3_SaIS3_EEEEENSt11_Niter_baseIT_E13iterator_typeESA_ @587
    _ZSt12__niter_baseIPN6libAF24Mesh4BoneEENSt11_Niter_baseIT_E13iterator_typeES5_ @588
    _ZSt12__niter_baseIPN6libAF24Mesh6VertexEENSt11_Niter_baseIT_E13iterator_typeES5_ @589
    _ZSt12__niter_baseIPN6libAF24Mesh8TriangleEENSt11_Niter_baseIT_E13iterator_typeES5_ @590
    _ZSt12__niter_baseIPN6libAF29Animation5FrameEENSt11_Niter_baseIT_E13iterator_typeES5_ @591
    _ZSt12__niter_baseIPSt5arrayIfLj3EEENSt11_Niter_baseIT_E13iterator_typeES4_ @592
    _ZSt13__copy_move_aILb0EPKN6libAF24Mesh4BoneEPS2_ET1_T0_S7_S6_ @593
    _ZSt13__copy_move_aILb0EPKN6libAF24Mesh6VertexEPS2_ET1_T0_S7_S6_ @594
    _ZSt13__copy_move_aILb0EPKN6libAF24Mesh8TriangleEPS2_ET1_T0_S7_S6_ @595
    _ZSt13__copy_move_aILb0EPKN6libAF29Animation5FrameEPS2_ET1_T0_S7_S6_ @596
    _ZSt13__copy_move_aILb0EPKSt5arrayIfLj3EEPS1_ET1_T0_S6_S5_ @597
    _ZSt13__copy_move_aILb0EPN6libAF24Mesh4BoneES3_ET1_T0_S5_S4_ @598
    _ZSt13__copy_move_aILb0EPN6libAF24Mesh6VertexES3_ET1_T0_S5_S4_ @599
    _ZSt13__copy_move_aILb0EPN6libAF24Mesh8TriangleES3_ET1_T0_S5_S4_ @600
    _ZSt13__copy_move_aILb0EPN6libAF29Animation5FrameES3_ET1_T0_S5_S4_ @601
    _ZSt13__copy_move_aILb0EPSt5arrayIfLj3EES2_ET1_T0_S4_S3_ @602
    _ZSt13__copy_move_aILb1EPSt5arrayIfLj3EES2_ET1_T0_S4_S3_ @603
    _ZSt13move_backwardIPN6libAF24Mesh4BoneES3_ET0_T_S5_S4_ @604
    _ZSt13move_backwardIPN6libAF24Mesh6VertexES3_ET0_T_S5_S4_ @605
    _ZSt13move_backwardIPN6libAF24Mesh8TriangleES3_ET0_T_S5_S4_ @606
    _ZSt14__copy_move_a2ILb0EN9__gnu_cxx17__normal_iteratorIPKN6libAF24Mesh4BoneESt6vectorIS4_SaIS4_EEEENS1_IPS4_S9_EEET1_T0_SE_SD_ @607
    _ZSt14__copy_move_a2ILb0EN9__gnu_cxx17__normal_iteratorIPKN6libAF24Mesh6VertexESt6vectorIS4_SaIS4_EEEENS1_IPS4_S9_EEET1_T0_SE_SD_ @608
    _ZSt14__copy_move_a2ILb0EN9__gnu_cxx17__normal_iteratorIPKN6libAF24Mesh8TriangleESt6vectorIS4_SaIS4_EEEENS1_IPS4_S9_EEET1_T0_SE_SD_ @609
    _ZSt14__copy_move_a2ILb0EN9__gnu_cxx17__normal_iteratorIPKN6libAF29Animation5FrameESt6vectorIS4_SaIS4_EEEENS1_IPS4_S9_EEET1_T0_SE_SD_ @610
    _ZSt14__copy_move_a2ILb0EN9__gnu_cxx17__normal_iteratorIPKSt5arrayIfLj3EESt6vectorIS3_SaIS3_EEEENS1_IPS3_S8_EEET1_T0_SD_SC_ @611
    _ZSt14__copy_move_a2ILb0EN9__gnu_cxx17__normal_iteratorIPKSt5arrayIfLj3EESt6vectorIS3_SaIS3_EEEEPS3_ET1_T0_SC_SB_ @612
    _ZSt14__copy_move_a2ILb0EPN6libAF24Mesh4BoneES3_ET1_T0_S5_S4_ @613
    _ZSt14__copy_move_a2ILb0EPN6libAF24Mesh6VertexES3_ET1_T0_S5_S4_ @614
    _ZSt14__copy_move_a2ILb0EPN6libAF24Mesh8TriangleES3_ET1_T0_S5_S4_ @615
    _ZSt14__copy_move_a2ILb0EPN6libAF29Animation5FrameES3_ET1_T0_S5_S4_ @616
    _ZSt14__copy_move_a2ILb0EPSt5arrayIfLj3EES2_ET1_T0_S4_S3_ @617
    _ZSt14__copy_move_a2ILb1EPSt5arrayIfLj3EES2_ET1_T0_S4_S3_ @618
    _ZSt15__alloc_on_copyISaIN6libAF24Mesh4BoneEEEvRT_RKS4_ @619
    _ZSt15__alloc_on_copyISaIN6libAF24Mesh6VertexEEEvRT_RKS4_ @620
    _ZSt15__alloc_on_copyISaIN6libAF24Mesh8TriangleEEEvRT_RKS4_ @621
    _ZSt15__alloc_on_copyISaIN6libAF29Animation5FrameEEEvRT_RKS4_ @622
    _ZSt15__alloc_on_copyISaISt5arrayIfLj3EEEEvRT_RKS3_ @623
    _ZSt18__do_alloc_on_copyISaIN6libAF24Mesh4BoneEEEvRT_RKS4_St17integral_constantIbLb0EE @624
    _ZSt18__do_alloc_on_copyISaIN6libAF24Mesh6VertexEEEvRT_RKS4_St17integral_constantIbLb0EE @625
    _ZSt18__do_alloc_on_copyISaIN6libAF24Mesh8TriangleEEEvRT_RKS4_St17integral_constantIbLb0EE @626
    _ZSt18__do_alloc_on_copyISaIN6libAF29Animation5FrameEEEvRT_RKS4_St17integral_constantIbLb0EE @627
    _ZSt18__do_alloc_on_copyISaISt5arrayIfLj3EEEEvRT_RKS3_St17integral_constantIbLb0EE @628
    _ZSt18make_move_iteratorIPN6libAF24Mesh4BoneEESt13move_iteratorIT_ES5_ @629
    _ZSt18make_move_iteratorIPN6libAF24Mesh6VertexEESt13move_iteratorIT_ES5_ @630
    _ZSt18make_move_iteratorIPN6libAF24Mesh8TriangleEESt13move_iteratorIT_ES5_ @631
    _ZSt18uninitialized_copyIN9__gnu_cxx17__normal_iteratorIPKN6libAF24Mesh4BoneESt6vectorIS4_SaIS4_EEEEPS4_ET0_T_SD_SC_ @632
    _ZSt18uninitialized_copyIN9__gnu_cxx17__normal_iteratorIPKN6libAF24Mesh6VertexESt6vectorIS4_SaIS4_EEEEPS4_ET0_T_SD_SC_ @633
    _ZSt18uninitialized_copyIN9__gnu_cxx17__normal_iteratorIPKN6libAF24Mesh8TriangleESt6vectorIS4_SaIS4_EEEEPS4_ET0_T_SD_SC_ @634
    _ZSt18uninitialized_copyIN9__gnu_cxx17__normal_iteratorIPKN6libAF29Animation5FrameESt6vectorIS4_SaIS4_EEEEPS4_ET0_T_SD_SC_ @635
    _ZSt18uninitialized_copyIN9__gnu_cxx17__normal_iteratorIPKSt5arrayIfLj3EESt6vectorIS3_SaIS3_EEEEPS3_ET0_T_SC_SB_ @636
    _ZSt18uninitialized_copyIPN6libAF24Mesh4BoneES3_ET0_T_S5_S4_ @637
    _ZSt18uninitialized_copyIPN6libAF24Mesh6VertexES3_ET0_T_S5_S4_ @638
    _ZSt18uninitialized_copyIPN6libAF24Mesh8TriangleES3_ET0_T_S5_S4_ @639
    _ZSt18uninitialized_copyIPN6libAF25SoundES2_ET0_T_S4_S3_ @640
    _ZSt18uninitialized_copyIPN6libAF29Animation5FrameES3_ET0_T_S5_S4_ @641
    _ZSt18uninitialized_copyIPN6libAF29AnimationES2_ET0_T_S4_S3_ @642
    _ZSt18uninitialized_copyIPSt5arrayIfLj3EES2_ET0_T_S4_S3_ @643
    _ZSt18uninitialized_copyISt13move_iteratorIPN6libAF24Mesh4BoneEES4_ET0_T_S7_S6_ @644
    _ZSt18uninitialized_copyISt13move_iteratorIPN6libAF24Mesh6VertexEES4_ET0_T_S7_S6_ @645
    _ZSt18uninitialized_copyISt13move_iteratorIPN6libAF24Mesh8TriangleEES4_ET0_T_S7_S6_ @646
    _ZSt18uninitialized_copyISt13move_iteratorIPSt5arrayIfLj3EEES3_ET0_T_S6_S5_ @647
    _ZSt18uninitialized_copyISt13move_iteratorIPjES1_ET0_T_S4_S3_ @648
    _ZSt19__iterator_categoryIN9__gnu_cxx17__normal_iteratorIPKN6libAF24Mesh4BoneESt6vectorIS4_SaIS4_EEEEENSt15iterator_traitsIT_E17iterator_categoryERKSC_ @649
    _ZSt19__iterator_categoryIN9__gnu_cxx17__normal_iteratorIPKN6libAF24Mesh6VertexESt6vectorIS4_SaIS4_EEEEENSt15iterator_traitsIT_E17iterator_categoryERKSC_ @650
    _ZSt19__iterator_categoryIN9__gnu_cxx17__normal_iteratorIPKN6libAF24Mesh8TriangleESt6vectorIS4_SaIS4_EEEEENSt15iterator_traitsIT_E17iterator_categoryERKSC_ @651
    _ZSt22__copy_move_backward_aILb1EPN6libAF24Mesh4BoneES3_ET1_T0_S5_S4_ @652
    _ZSt22__copy_move_backward_aILb1EPN6libAF24Mesh6VertexES3_ET1_T0_S5_S4_ @653
    _ZSt22__copy_move_backward_aILb1EPN6libAF24Mesh8TriangleES3_ET1_T0_S5_S4_ @654
    _ZSt22__uninitialized_copy_aIN9__gnu_cxx17__normal_iteratorIPKN6libAF24Mesh4BoneESt6vectorIS4_SaIS4_EEEEPS4_S4_ET0_T_SD_SC_RSaIT1_E @655
    _ZSt22__uninitialized_copy_aIN9__gnu_cxx17__normal_iteratorIPKN6libAF24Mesh6VertexESt6vectorIS4_SaIS4_EEEEPS4_S4_ET0_T_SD_SC_RSaIT1_E @656
    _ZSt22__uninitialized_copy_aIN9__gnu_cxx17__normal_iteratorIPKN6libAF24Mesh8TriangleESt6vectorIS4_SaIS4_EEEEPS4_S4_ET0_T_SD_SC_RSaIT1_E @657
    _ZSt22__uninitialized_copy_aIN9__gnu_cxx17__normal_iteratorIPKN6libAF29Animation5FrameESt6vectorIS4_SaIS4_EEEEPS4_S4_ET0_T_SD_SC_RSaIT1_E @658
    _ZSt22__uninitialized_copy_aIN9__gnu_cxx17__normal_iteratorIPKSt5arrayIfLj3EESt6vectorIS3_SaIS3_EEEEPS3_S3_ET0_T_SC_SB_RSaIT1_E @659
    _ZSt22__uninitialized_copy_aIPN6libAF24Mesh4BoneES3_S2_ET0_T_S5_S4_RSaIT1_E @660
    _ZSt22__uninitialized_copy_aIPN6libAF24Mesh6VertexES3_S2_ET0_T_S5_S4_RSaIT1_E @661
    _ZSt22__uninitialized_copy_aIPN6libAF24Mesh8TriangleES3_S2_ET0_T_S5_S4_RSaIT1_E @662
    _ZSt22__uninitialized_copy_aIPN6libAF25SoundES2_S1_ET0_T_S4_S3_RSaIT1_E @663
    _ZSt22__uninitialized_copy_aIPN6libAF29Animation5FrameES3_S2_ET0_T_S5_S4_RSaIT1_E @664
    _ZSt22__uninitialized_copy_aIPN6libAF29AnimationES2_S1_ET0_T_S4_S3_RSaIT1_E @665
    _ZSt22__uninitialized_copy_aIPSt5arrayIfLj3EES2_S1_ET0_T_S4_S3_RSaIT1_E @666
    _ZSt22__uninitialized_copy_aISt13move_iteratorIPN6libAF24Mesh4BoneEES4_S3_ET0_T_S7_S6_RSaIT1_E @667
    _ZSt22__uninitialized_copy_aISt13move_iteratorIPN6libAF24Mesh6VertexEES4_S3_ET0_T_S7_S6_RSaIT1_E @668
    _ZSt22__uninitialized_copy_aISt13move_iteratorIPN6libAF24Mesh8TriangleEES4_S3_ET0_T_S7_S6_RSaIT1_E @669
    _ZSt22__uninitialized_copy_aISt13move_iteratorIPSt5arrayIfLj3EEES3_S2_ET0_T_S6_S5_RSaIT1_E @670
    _ZSt22__uninitialized_copy_aISt13move_iteratorIPjES1_jET0_T_S4_S3_RSaIT1_E @671
    _ZSt22__uninitialized_move_aIPN6libAF24Mesh4BoneES3_SaIS2_EET0_T_S6_S5_RT1_ @672
    _ZSt22__uninitialized_move_aIPN6libAF24Mesh6VertexES3_SaIS2_EET0_T_S6_S5_RT1_ @673
    _ZSt22__uninitialized_move_aIPN6libAF24Mesh8TriangleES3_SaIS2_EET0_T_S6_S5_RT1_ @674
    _ZSt23__copy_move_backward_a2ILb1EPN6libAF24Mesh4BoneES3_ET1_T0_S5_S4_ @675
    _ZSt23__copy_move_backward_a2ILb1EPN6libAF24Mesh6VertexES3_ET1_T0_S5_S4_ @676
    _ZSt23__copy_move_backward_a2ILb1EPN6libAF24Mesh8TriangleES3_ET1_T0_S5_S4_ @677
    _ZSt32__make_move_if_noexcept_iteratorIPN6libAF24Mesh4BoneES3_ET0_T_ @678
    _ZSt32__make_move_if_noexcept_iteratorIPN6libAF24Mesh6VertexES3_ET0_T_ @679
    _ZSt32__make_move_if_noexcept_iteratorIPN6libAF24Mesh8TriangleES3_ET0_T_ @680
    _ZSt32__make_move_if_noexcept_iteratorIPN6libAF25SoundES2_ET0_T_ @681
    _ZSt32__make_move_if_noexcept_iteratorIPN6libAF29Animation5FrameES3_ET0_T_ @682
    _ZSt32__make_move_if_noexcept_iteratorIPN6libAF29AnimationES2_ET0_T_ @683
    _ZSt32__make_move_if_noexcept_iteratorIPSt5arrayIfLj3EESt13move_iteratorIS2_EET0_T_ @684
    _ZSt32__make_move_if_noexcept_iteratorIPjSt13move_iteratorIS0_EET0_T_ @685
    _ZSt34__uninitialized_move_if_noexcept_aIPN6libAF24Mesh4BoneES3_SaIS2_EET0_T_S6_S5_RT1_ @686
    _ZSt34__uninitialized_move_if_noexcept_aIPN6libAF24Mesh6VertexES3_SaIS2_EET0_T_S6_S5_RT1_ @687
    _ZSt34__uninitialized_move_if_noexcept_aIPN6libAF24Mesh8TriangleES3_SaIS2_EET0_T_S6_S5_RT1_ @688
    _ZSt34__uninitialized_move_if_noexcept_aIPN6libAF25SoundES2_SaIS1_EET0_T_S5_S4_RT1_ @689
    _ZSt34__uninitialized_move_if_noexcept_aIPN6libAF29Animation5FrameES3_SaIS2_EET0_T_S6_S5_RT1_ @690
    _ZSt34__uninitialized_move_if_noexcept_aIPN6libAF29AnimationES2_SaIS1_EET0_T_S5_S4_RT1_ @691
    _ZSt34__uninitialized_move_if_noexcept_aIPSt5arrayIfLj3EES2_SaIS1_EET0_T_S5_S4_RT1_ @692
    _ZSt34__uninitialized_move_if_noexcept_aIPjS0_SaIjEET0_T_S3_S2_RT1_ @693
    _ZSt3maxIjERKT_S2_S2_ @694
    _ZSt4copyIN9__gnu_cxx17__normal_iteratorIPKN6libAF24Mesh4BoneESt6vectorIS4_SaIS4_EEEENS1_IPS4_S9_EEET0_T_SE_SD_ @695
    _ZSt4copyIN9__gnu_cxx17__normal_iteratorIPKN6libAF24Mesh6VertexESt6vectorIS4_SaIS4_EEEENS1_IPS4_S9_EEET0_T_SE_SD_ @696
    _ZSt4copyIN9__gnu_cxx17__normal_iteratorIPKN6libAF24Mesh8TriangleESt6vectorIS4_SaIS4_EEEENS1_IPS4_S9_EEET0_T_SE_SD_ @697
    _ZSt4copyIN9__gnu_cxx17__normal_iteratorIPKN6libAF29Animation5FrameESt6vectorIS4_SaIS4_EEEENS1_IPS4_S9_EEET0_T_SE_SD_ @698
    _ZSt4copyIN9__gnu_cxx17__normal_iteratorIPKSt5arrayIfLj3EESt6vectorIS3_SaIS3_EEEENS1_IPS3_S8_EEET0_T_SD_SC_ @699
    _ZSt4copyIN9__gnu_cxx17__normal_iteratorIPKSt5arrayIfLj3EESt6vectorIS3_SaIS3_EEEEPS3_ET0_T_SC_SB_ @700
    _ZSt4copyIPN6libAF24Mesh4BoneES3_ET0_T_S5_S4_ @701
    _ZSt4copyIPN6libAF24Mesh6VertexES3_ET0_T_S5_S4_ @702
    _ZSt4copyIPN6libAF24Mesh8TriangleES3_ET0_T_S5_S4_ @703
    _ZSt4copyIPN6libAF29Animation5FrameES3_ET0_T_S5_S4_ @704
    _ZSt4copyIPSt5arrayIfLj3EES2_ET0_T_S4_S3_ @705
    _ZSt4copyISt13move_iteratorIPSt5arrayIfLj3EEES3_ET0_T_S6_S5_ @706
    _ZSt4moveIRN6libAF24Mesh4BoneEEONSt16remove_referenceIT_E4typeEOS5_ @707
    _ZSt4moveIRN6libAF24Mesh6VertexEEONSt16remove_referenceIT_E4typeEOS5_ @708
    _ZSt4moveIRN6libAF24Mesh8TriangleEEONSt16remove_referenceIT_E4typeEOS5_ @709
    _ZSt4moveIRjEONSt16remove_referenceIT_E4typeEOS2_ @710
    _ZSt7advanceIN9__gnu_cxx17__normal_iteratorIPKN6libAF24Mesh4BoneESt6vectorIS4_SaIS4_EEEEjEvRT_T0_ @711
    _ZSt7advanceIN9__gnu_cxx17__normal_iteratorIPKN6libAF24Mesh6VertexESt6vectorIS4_SaIS4_EEEEjEvRT_T0_ @712
    _ZSt7advanceIN9__gnu_cxx17__normal_iteratorIPKN6libAF24Mesh8TriangleESt6vectorIS4_SaIS4_EEEEjEvRT_T0_ @713
    _ZSt7forwardIN6libAF24Mesh4BoneEEOT_RNSt16remove_referenceIS3_E4typeE @714
    _ZSt7forwardIN6libAF24Mesh6VertexEEOT_RNSt16remove_referenceIS3_E4typeE @715
    _ZSt7forwardIN6libAF24Mesh8TriangleEEOT_RNSt16remove_referenceIS3_E4typeE @716
    _ZSt7forwardIRKN6libAF24Mesh4BoneEEOT_RNSt16remove_referenceIS5_E4typeE @717
    _ZSt7forwardIRKN6libAF24Mesh6VertexEEOT_RNSt16remove_referenceIS5_E4typeE @718
    _ZSt7forwardIRKN6libAF24Mesh8TriangleEEOT_RNSt16remove_referenceIS5_E4typeE @719
    _ZSt7forwardIRKN6libAF25SoundEEOT_RNSt16remove_referenceIS4_E4typeE @720
    _ZSt7forwardIRKN6libAF29Animation5FrameEEOT_RNSt16remove_referenceIS5_E4typeE @721
    _ZSt7forwardIRKN6libAF29AnimationEEOT_RNSt16remove_referenceIS4_E4typeE @722
    _ZSt7forwardIRKSt5arrayIfLj3EEEOT_RNSt16remove_referenceIS4_E4typeE @723
    _ZSt7forwardIRKjEOT_RNSt16remove_referenceIS2_E4typeE @724
    _ZSt7forwardIRN6libAF24Mesh4BoneEEOT_RNSt16remove_referenceIS4_E4typeE @725
    _ZSt7forwardIRN6libAF24Mesh6VertexEEOT_RNSt16remove_referenceIS4_E4typeE @726
    _ZSt7forwardIRN6libAF24Mesh8TriangleEEOT_RNSt16remove_referenceIS4_E4typeE @727
    _ZSt7forwardIRN6libAF25SoundEEOT_RNSt16remove_referenceIS3_E4typeE @728
    _ZSt7forwardIRN6libAF29Animation5FrameEEOT_RNSt16remove_referenceIS4_E4typeE @729
    _ZSt7forwardIRN6libAF29AnimationEEOT_RNSt16remove_referenceIS3_E4typeE @730
    _ZSt7forwardIjEOT_RNSt16remove_referenceIS0_E4typeE @731
    _ZSt8_DestroyIN6libAF24Mesh4BoneEEvPT_ @732
    _ZSt8_DestroyIN6libAF25SoundEEvPT_ @733
    _ZSt8_DestroyIN6libAF29Animation5FrameEEvPT_ @734
    _ZSt8_DestroyIN6libAF29AnimationEEvPT_ @735
    _ZSt8_DestroyIN9__gnu_cxx17__normal_iteratorIPN6libAF24Mesh4BoneESt6vectorIS4_SaIS4_EEEEEvT_SA_ @736
    _ZSt8_DestroyIN9__gnu_cxx17__normal_iteratorIPN6libAF24Mesh4BoneESt6vectorIS4_SaIS4_EEEES4_EvT_SA_RSaIT0_E @737
    _ZSt8_DestroyIN9__gnu_cxx17__normal_iteratorIPN6libAF24Mesh6VertexESt6vectorIS4_SaIS4_EEEEEvT_SA_ @738
    _ZSt8_DestroyIN9__gnu_cxx17__normal_iteratorIPN6libAF24Mesh6VertexESt6vectorIS4_SaIS4_EEEES4_EvT_SA_RSaIT0_E @739
    _ZSt8_DestroyIN9__gnu_cxx17__normal_iteratorIPN6libAF24Mesh8TriangleESt6vectorIS4_SaIS4_EEEEEvT_SA_ @740
    _ZSt8_DestroyIN9__gnu_cxx17__normal_iteratorIPN6libAF24Mesh8TriangleESt6vectorIS4_SaIS4_EEEES4_EvT_SA_RSaIT0_E @741
    _ZSt8_DestroyIN9__gnu_cxx17__normal_iteratorIPN6libAF29Animation5FrameESt6vectorIS4_SaIS4_EEEEEvT_SA_ @742
    _ZSt8_DestroyIN9__gnu_cxx17__normal_iteratorIPN6libAF29Animation5FrameESt6vectorIS4_SaIS4_EEEES4_EvT_SA_RSaIT0_E @743
    _ZSt8_DestroyIN9__gnu_cxx17__normal_iteratorIPSt5arrayIfLj3EESt6vectorIS3_SaIS3_EEEEEvT_S9_ @744
    _ZSt8_DestroyIN9__gnu_cxx17__normal_iteratorIPSt5arrayIfLj3EESt6vectorIS3_SaIS3_EEEES3_EvT_S9_RSaIT0_E @745
    _ZSt8_DestroyIPN6libAF24Mesh4BoneEEvT_S4_ @746
    _ZSt8_DestroyIPN6libAF24Mesh4BoneES2_EvT_S4_RSaIT0_E @747
    _ZSt8_DestroyIPN6libAF24Mesh6VertexEEvT_S4_ @748
    _ZSt8_DestroyIPN6libAF24Mesh6VertexES2_EvT_S4_RSaIT0_E @749
    _ZSt8_DestroyIPN6libAF24Mesh8TriangleEEvT_S4_ @750
    _ZSt8_DestroyIPN6libAF24Mesh8TriangleES2_EvT_S4_RSaIT0_E @751
    _ZSt8_DestroyIPN6libAF25SoundEEvT_S3_ @752
    _ZSt8_DestroyIPN6libAF25SoundES1_EvT_S3_RSaIT0_E @753
    _ZSt8_DestroyIPN6libAF29Animation5FrameEEvT_S4_ @754
    _ZSt8_DestroyIPN6libAF29Animation5FrameES2_EvT_S4_RSaIT0_E @755
    _ZSt8_DestroyIPN6libAF29AnimationEEvT_S3_ @756
    _ZSt8_DestroyIPN6libAF29AnimationES1_EvT_S3_RSaIT0_E @757
    _ZSt8_DestroyIPSt5arrayIfLj3EEEvT_S3_ @758
    _ZSt8_DestroyIPSt5arrayIfLj3EES1_EvT_S3_RSaIT0_E @759
    _ZSt8_DestroyIPjEvT_S1_ @760
    _ZSt8_DestroyIPjjEvT_S1_RSaIT0_E @761
    _ZSt8distanceIN9__gnu_cxx17__normal_iteratorIPKN6libAF24Mesh4BoneESt6vectorIS4_SaIS4_EEEEENSt15iterator_traitsIT_E15difference_typeESC_SC_ @762
    _ZSt8distanceIN9__gnu_cxx17__normal_iteratorIPKN6libAF24Mesh6VertexESt6vectorIS4_SaIS4_EEEEENSt15iterator_traitsIT_E15difference_typeESC_SC_ @763
    _ZSt8distanceIN9__gnu_cxx17__normal_iteratorIPKN6libAF24Mesh8TriangleESt6vectorIS4_SaIS4_EEEEENSt15iterator_traitsIT_E15difference_typeESC_SC_ @764
    _ZSt9__advanceIN9__gnu_cxx17__normal_iteratorIPKN6libAF24Mesh4BoneESt6vectorIS4_SaIS4_EEEEiEvRT_T0_St26random_access_iterator_tag @765
    _ZSt9__advanceIN9__gnu_cxx17__normal_iteratorIPKN6libAF24Mesh6VertexESt6vectorIS4_SaIS4_EEEEiEvRT_T0_St26random_access_iterator_tag @766
    _ZSt9__advanceIN9__gnu_cxx17__normal_iteratorIPKN6libAF24Mesh8TriangleESt6vectorIS4_SaIS4_EEEEiEvRT_T0_St26random_access_iterator_tag @767
    _ZSteqIPN6libAF24Mesh4BoneEEbRKSt13move_iteratorIT_ES8_ @768
    _ZSteqIPN6libAF24Mesh6VertexEEbRKSt13move_iteratorIT_ES8_ @769
    _ZSteqIPN6libAF24Mesh8TriangleEEbRKSt13move_iteratorIT_ES8_ @770
    _ZSteqIPjEbRKSt13move_iteratorIT_ES5_ @771
    _ZStneIN6libAF24Mesh4BoneEEbRKSaIT_ES6_ @772
    _ZStneIN6libAF24Mesh6VertexEEbRKSaIT_ES6_ @773
    _ZStneIN6libAF24Mesh8TriangleEEbRKSaIT_ES6_ @774
    _ZStneIN6libAF29Animation5FrameEEbRKSaIT_ES6_ @775
    _ZStneIPN6libAF24Mesh4BoneEEbRKSt13move_iteratorIT_ES8_ @776
    _ZStneIPN6libAF24Mesh6VertexEEbRKSt13move_iteratorIT_ES8_ @777
    _ZStneIPN6libAF24Mesh8TriangleEEbRKSt13move_iteratorIT_ES8_ @778
    _ZStneIPjEbRKSt13move_iteratorIT_ES5_ @779
    _ZStneISt5arrayIfLj3EEEbRKSaIT_ES5_ @780
    _ZStorSt13_Ios_OpenmodeS_ @781
    _ZTISt11logic_error @782 DATA
    _ZTISt12out_of_range @783 DATA
    _ZTISt16invalid_argument @784 DATA
    _ZTISt9exception @785 DATA
    _ZTSSt11logic_error @786 DATA
    _ZTSSt12out_of_range @787 DATA
    _ZTSSt16invalid_argument @788 DATA
    _ZTSSt9exception @789 DATA
    _ZdlPvS_ @790
    _ZnwjPv @791
    _get_output_format @792
